Certificate:
    Data:
        Version: 3 (0x2)
        Serial Number: 2 (0x2)
    Signature Algorithm: sha1WithRSAEncryption
        Issuer: C=SE, ST=Stockholm, L=BNSS-GROUP-8, O=KTH/emailAddress=atiiq@kth.se, CN=Server Certificate to Connect to Stockholm
        Validity
            Not Before: Mar 10 15:49:37 2016 GMT
            Not After : Mar 10 15:49:37 2017 GMT
        Subject: C=SE, ST=Stockholm, O=KTH, CN=Server Certificate to Connect to Stockholm/emailAddress=atiiq@kth.se
        Subject Public Key Info:
            Public Key Algorithm: rsaEncryption
                Public-Key: (4096 bit)
                Modulus:
                    00:c9:68:29:31:72:cc:7b:72:9d:60:35:bd:e8:bc:
                    a1:eb:c1:33:8e:e7:2f:f1:bf:6c:0d:e0:ba:56:cb:
                    f0:6a:61:36:bc:6d:2b:cb:e5:c0:8a:8b:ea:36:5f:
                    17:39:dd:b3:a0:01:d0:e9:27:19:2a:77:b2:fe:50:
                    9b:f4:7d:e9:25:ac:83:0b:f1:e6:8c:f4:b8:8f:13:
                    8d:c1:c0:97:4d:87:79:5f:3e:8b:14:98:ef:c8:15:
                    08:f7:6c:43:f9:c8:eb:94:86:3f:19:f5:4a:a2:14:
                    7a:96:c5:dd:8c:40:1e:e3:9a:ea:ed:8c:fb:71:c1:
                    53:df:e9:5f:01:d1:d4:69:c5:7f:34:d4:91:12:c4:
                    46:f9:5a:03:8e:6b:78:f3:b3:18:9d:4b:d6:f4:92:
                    13:c9:87:b2:7a:8c:19:16:96:85:8c:1e:a2:43:eb:
                    cf:fd:bd:72:2f:bb:9f:3c:c3:1a:03:11:5a:a3:89:
                    ad:dd:58:35:21:7a:de:b2:97:f2:b5:97:77:ee:ad:
                    93:64:0b:ff:c6:8e:26:06:96:71:81:dc:7d:ea:31:
                    6d:10:1d:7c:8b:fe:f5:3e:87:5e:13:0c:7b:82:08:
                    6d:c6:63:b2:47:1e:86:32:74:0b:6c:a4:99:78:3e:
                    24:9e:de:01:87:4a:65:84:12:86:2e:5c:c5:e9:a8:
                    91:bb:d2:cd:2c:20:39:00:07:a9:47:7b:56:bd:40:
                    a5:34:e8:5a:cf:b5:fd:97:a8:72:dc:85:67:5c:12:
                    34:ec:67:6d:be:0b:9d:c7:2d:f0:ae:af:60:75:1e:
                    2b:5d:04:29:cc:f5:99:f5:74:ed:7b:cc:7e:41:e1:
                    35:25:21:d0:78:1c:66:2e:02:76:3f:fb:c7:8a:29:
                    41:6d:9d:43:f1:6f:b1:59:c7:77:9b:4b:65:98:a4:
                    eb:b0:b5:c5:ac:fb:88:97:00:eb:91:86:ed:ee:71:
                    52:30:59:20:11:22:d3:7f:b8:fb:6f:24:5f:98:16:
                    17:4a:07:4a:b1:f7:47:f0:1c:72:cd:8b:3e:48:1d:
                    3f:6e:61:c8:83:61:c1:e8:d4:dd:b0:19:49:74:8c:
                    e7:91:fb:1e:dd:da:e5:7d:48:d1:40:db:be:6e:46:
                    fb:71:42:2a:90:f6:52:95:0c:fd:26:1b:92:7e:fe:
                    4f:5c:0e:c5:b4:e3:f4:78:27:16:b9:ae:f8:39:61:
                    52:09:26:77:7b:07:ff:f7:fe:3d:0d:5c:ff:dc:70:
                    3d:a5:77:c7:5f:7b:11:0a:ba:0a:c9:22:fa:38:62:
                    56:87:30:03:96:6c:0c:e7:29:fb:c4:98:0b:69:0d:
                    fa:0c:40:34:3a:cd:c8:f6:41:a7:fe:6f:ea:2d:a1:
                    be:1d:33
                Exponent: 65537 (0x10001)
        X509v3 extensions:
            X509v3 Extended Key Usage: 
                TLS Web Client Authentication
    Signature Algorithm: sha1WithRSAEncryption
         61:df:0c:79:45:f9:31:25:8f:88:02:57:43:f7:10:a4:33:fa:
         c3:47:25:d7:92:82:7e:9a:00:05:1b:2a:95:d9:a4:8a:98:cd:
         9a:43:04:be:8a:11:8a:ca:32:98:50:eb:d4:b2:7a:ea:02:e3:
         95:9e:a2:af:13:45:5d:cb:c6:29:c7:2e:1d:ef:22:9a:49:e6:
         4f:20:a0:5e:ae:b1:95:7d:e1:21:d9:11:6a:b7:39:65:3d:a7:
         14:b4:c7:a8:8f:17:71:5a:8b:60:7d:28:08:1d:b5:03:c8:c3:
         64:50:33:f2:67:52:71:4e:8e:45:f9:4e:5d:f9:02:ee:31:9a:
         29:18:4f:b7:1a:44:15:c4:55:92:bb:bf:03:d6:c7:8e:e6:e6:
         bb:38:82:0c:84:7f:b4:49:9b:8d:57:6a:a1:93:fd:db:e5:27:
         2e:82:33:3f:a1:f8:c9:89:10:05:cc:7c:1c:4c:56:f7:9b:6c:
         57:9f:07:12:0a:6b:7d:dd:fe:9a:61:a4:97:f4:e7:11:ea:c0:
         bb:9b:f4:85:d0:97:86:d8:c8:06:5e:0b:e1:c7:90:a1:69:c2:
         f6:e3:92:de:d1:29:80:71:44:b8:a9:fd:5f:f7:1c:be:bf:33:
         6d:46:c0:4f:65:c7:4b:57:59:13:62:cc:12:b2:78:26:9b:c3:
         3a:20:19:25:15:93:17:98:36:03:6e:8f:d8:ff:68:c2:c7:ab:
         5b:88:9f:ac:63:21:fa:95:16:39:99:5e:0c:e6:38:ff:9f:53:
         76:c8:cf:5b:33:97:af:76:e6:dd:d9:db:91:fa:0d:6f:0e:b6:
         be:2d:af:8e:a9:7d:3c:b0:31:cf:32:1f:15:fb:93:e9:b3:85:
         d7:20:3a:99:d9:ca:e2:cc:90:ad:66:db:51:ab:5f:27:d9:ba:
         02:a6:8e:78:30:08:a5:72:85:04:d3:57:a3:a7:78:35:32:53:
         27:d4:1c:cf:fd:51:b4:36:0d:3b:46:6a:ff:63:f5:e8:62:20:
         cd:ca:75:1a:00:47:b9:d7:15:39:53:15:dc:7f:32:f8:3e:45:
         17:93:06:25:08:25:41:af:d3:18:13:12:1f:7f:11:58:f1:fd:
         78:28:0f:46:10:51:c3:a1:61:f7:b9:31:86:eb:3b:49:b5:bb:
         d3:d9:f4:58:ed:04:09:c3:9d:eb:03:d6:6a:34:b3:f3:3a:e6:
         95:96:6b:74:60:7f:c5:33:9f:f6:19:8e:24:27:cd:87:7b:69:
         49:03:19:e8:85:d9:33:ea:df:30:b5:0c:1a:49:0a:a3:58:26:
         f3:57:38:cc:47:dc:21:8a:fd:4b:49:93:bd:a4:95:c5:ee:8f:
         1e:e6:85:52:a0:49:1a:a7
-----BEGIN CERTIFICATE-----
MIIFrTCCA5WgAwIBAgIBAjANBgkqhkiG9w0BAQUFADCBmDELMAkGA1UEBhMCU0Ux
EjAQBgNVBAgTCVN0b2NraG9sbTEVMBMGA1UEBxMMQk5TUy1HUk9VUC04MQwwCgYD
VQQKEwNLVEgxGzAZBgkqhkiG9w0BCQEWDGF0aWlxQGt0aC5zZTEzMDEGA1UEAxMq
U2VydmVyIENlcnRpZmljYXRlIHRvIENvbm5lY3QgdG8gU3RvY2tob2xtMB4XDTE2
MDMxMDE1NDkzN1oXDTE3MDMxMDE1NDkzN1owgYExCzAJBgNVBAYTAlNFMRIwEAYD
VQQIEwlTdG9ja2hvbG0xDDAKBgNVBAoTA0tUSDEzMDEGA1UEAxMqU2VydmVyIENl
cnRpZmljYXRlIHRvIENvbm5lY3QgdG8gU3RvY2tob2xtMRswGQYJKoZIhvcNAQkB
FgxhdGlpcUBrdGguc2UwggIiMA0GCSqGSIb3DQEBAQUAA4ICDwAwggIKAoICAQDJ
aCkxcsx7cp1gNb3ovKHrwTOO5y/xv2wN4LpWy/BqYTa8bSvL5cCKi+o2Xxc53bOg
AdDpJxkqd7L+UJv0feklrIML8eaM9LiPE43BwJdNh3lfPosUmO/IFQj3bEP5yOuU
hj8Z9UqiFHqWxd2MQB7jmurtjPtxwVPf6V8B0dRpxX801JESxEb5WgOOa3jzsxid
S9b0khPJh7J6jBkWloWMHqJD68/9vXIvu588wxoDEVqjia3dWDUhet6yl/K1l3fu
rZNkC//GjiYGlnGB3H3qMW0QHXyL/vU+h14TDHuCCG3GY7JHHoYydAtspJl4PiSe
3gGHSmWEEoYuXMXpqJG70s0sIDkAB6lHe1a9QKU06FrPtf2XqHLchWdcEjTsZ22+
C53HLfCur2B1HitdBCnM9Zn1dO17zH5B4TUlIdB4HGYuAnY/+8eKKUFtnUPxb7FZ
x3ebS2WYpOuwtcWs+4iXAOuRhu3ucVIwWSARItN/uPtvJF+YFhdKB0qx90fwHHLN
iz5IHT9uYciDYcHo1N2wGUl0jOeR+x7d2uV9SNFA275uRvtxQiqQ9lKVDP0mG5J+
/k9cDsW04/R4Jxa5rvg5YVIJJnd7B//3/j0NXP/ccD2ld8dfexEKugrJIvo4YlaH
MAOWbAznKfvEmAtpDfoMQDQ6zcj2Qaf+b+otob4dMwIDAQABoxcwFTATBgNVHSUE
DDAKBggrBgEFBQcDAjANBgkqhkiG9w0BAQUFAAOCAgEAYd8MeUX5MSWPiAJXQ/cQ
pDP6w0cl15KCfpoABRsqldmkipjNmkMEvooRisoymFDr1LJ66gLjlZ6irxNFXcvG
KccuHe8imknmTyCgXq6xlX3hIdkRarc5ZT2nFLTHqI8XcVqLYH0oCB21A8jDZFAz
8mdScU6ORflOXfkC7jGaKRhPtxpEFcRVkru/A9bHjubmuziCDIR/tEmbjVdqoZP9
2+UnLoIzP6H4yYkQBcx8HExW95tsV58HEgprfd3+mmGkl/TnEerAu5v0hdCXhtjI
Bl4L4ceQoWnC9uOS3tEpgHFEuKn9X/ccvr8zbUbAT2XHS1dZE2LMErJ4JpvDOiAZ
JRWTF5g2A26P2P9owserW4ifrGMh+pUWOZleDOY4/59TdsjPWzOXr3bm3dnbkfoN
bw62vi2vjql9PLAxzzIfFfuT6bOF1yA6mdnK4syQrWbbUatfJ9m6AqaOeDAIpXKF
BNNXo6d4NTJTJ9Qcz/1RtDYNO0Zq/2P16GIgzcp1GgBHudcVOVMV3H8y+D5FF5MG
JQglQa/TGBMSH38RWPH9eCgPRhBRw6Fh97kxhus7SbW709n0WO0ECcOd6wPWajSz
8zrmlZZrdGB/xTOf9hmOJCfNh3tpSQMZ6IXZM+rfMLUMGkkKo1gm81c4zEfcIYr9
S0mTvaSVxe6PHuaFUqBJGqc=
-----END CERTIFICATE-----
