Certificate:
    Data:
        Version: 3 (0x2)
        Serial Number: 3 (0x3)
    Signature Algorithm: sha1WithRSAEncryption
        Issuer: C=SE, ST=Stockholm, L=BNSS-GROUP-8, O=KTH/emailAddress=atiiq@kth.se, CN=Server Certificate to Connect to Stockholm
        Validity
            Not Before: Mar 10 16:28:09 2016 GMT
            Not After : Mar 10 16:28:09 2017 GMT
        Subject: C=SE, ST=Stockholm, O=KTH, CN=Server Certificate to Connect to Stockholm/emailAddress=honore@kth.se
        Subject Public Key Info:
            Public Key Algorithm: rsaEncryption
                Public-Key: (4096 bit)
                Modulus:
                    00:c7:1b:08:94:5f:78:f6:2c:9a:11:ab:21:d1:a1:
                    29:e8:40:01:a1:58:24:da:75:12:6b:46:88:1c:c7:
                    5f:2b:21:b0:21:f3:6d:44:07:23:73:5d:ef:15:43:
                    09:6a:74:b1:4e:20:55:27:6d:d3:56:35:d9:40:fa:
                    e8:23:31:dd:ad:f2:35:e2:bd:d1:db:7e:6a:7f:fa:
                    ba:ed:2c:3e:87:93:fd:f0:e8:8c:b1:f6:9f:72:9d:
                    fe:be:4c:ad:06:8a:f1:25:0e:e8:86:69:f2:c4:0a:
                    c1:67:65:21:70:30:d4:a2:73:c5:f9:e8:7e:90:ee:
                    b6:76:a9:9e:8c:44:5e:9e:cb:47:08:2d:e3:a2:de:
                    c1:52:ae:fc:2d:12:74:5b:66:a4:79:e0:30:59:5a:
                    30:d8:54:bd:4e:9e:02:42:d5:79:ee:8c:6a:f6:f1:
                    a8:cb:ee:0e:cb:3a:f1:c6:d0:8b:8f:6e:77:6b:37:
                    0d:2b:5c:a3:70:f0:a5:c8:e3:fa:fc:03:c3:c3:7c:
                    ce:bc:53:c4:1c:3a:a5:01:37:c5:7f:b8:37:4b:1e:
                    f8:ce:c5:dd:f8:0d:a9:19:23:ff:73:72:d0:04:43:
                    85:d5:51:0b:ae:c8:62:c0:5b:54:54:aa:47:c9:5e:
                    d2:64:bf:02:46:27:6b:cc:80:f4:da:a7:8e:e9:69:
                    cf:eb:e0:13:5a:35:3f:3f:95:9d:97:95:ee:62:5b:
                    09:82:7f:31:fa:52:19:b1:98:8e:04:2f:db:e7:57:
                    c5:cb:c1:17:8f:a3:f5:ca:84:6b:3e:cf:f8:cc:a5:
                    0c:e4:dc:76:b4:7a:b2:26:1f:c7:be:00:65:28:86:
                    e0:f1:01:b0:e6:4e:89:ed:67:4b:aa:a2:ec:2e:b8:
                    24:07:f5:0a:5d:9d:cc:08:d0:2c:d9:15:15:8c:34:
                    ec:bc:73:6b:80:63:6b:20:28:3d:c4:1b:db:27:a5:
                    5c:e2:dc:10:f0:64:3c:ad:dc:41:d5:be:9c:82:76:
                    79:63:9d:d1:0e:ed:4e:4e:67:5f:0b:ce:e6:4b:9a:
                    9d:18:9b:2f:f7:9f:e7:fe:26:12:23:57:eb:d6:bc:
                    bb:d0:8a:b6:5c:e8:c0:90:9d:79:84:10:c4:c5:e0:
                    4f:df:f0:c3:d8:db:85:ae:4f:5b:68:36:69:af:71:
                    11:57:e5:ba:37:28:71:ef:b0:0c:15:03:ac:12:ac:
                    cc:02:f7:b9:67:2a:df:fb:03:49:e5:7d:87:0c:8f:
                    60:7b:38:1d:a6:9a:15:4f:f7:06:5f:a1:b8:93:ba:
                    d1:03:5c:ce:7d:d5:28:e3:2f:88:ec:a7:1c:85:20:
                    a3:55:25:73:c8:3b:dd:51:67:15:91:3e:42:b9:c9:
                    d1:16:7b
                Exponent: 65537 (0x10001)
        X509v3 extensions:
            X509v3 Extended Key Usage: 
                TLS Web Client Authentication
    Signature Algorithm: sha1WithRSAEncryption
         29:c0:20:25:c4:62:a0:51:a2:c4:5e:df:c8:86:9b:c1:7d:5d:
         9c:51:b8:8d:54:eb:6e:1a:df:27:57:43:03:68:dd:65:ba:5c:
         68:df:97:33:be:13:a7:90:33:33:43:cc:30:1e:71:ec:a7:13:
         f8:97:db:02:27:94:1d:84:dd:2c:a7:2f:e3:f1:af:6a:e7:f1:
         b5:a2:94:7e:1f:56:b5:81:42:3c:6f:52:e4:60:c9:eb:32:cb:
         7e:df:25:db:8d:e2:45:da:f2:ab:60:28:88:c3:2a:20:5c:61:
         92:58:d5:76:d3:b2:5c:43:00:cf:27:be:75:e8:8e:84:05:10:
         db:a2:fd:35:10:15:e4:90:63:95:66:66:a8:aa:69:8a:3c:5c:
         4c:1e:9e:40:c8:5d:33:90:22:b5:9d:fc:55:10:74:73:54:1c:
         b0:22:35:bf:da:72:fd:d5:82:91:90:4e:40:46:68:b1:ec:41:
         50:aa:5b:71:11:13:31:22:60:a9:e9:43:3a:51:f0:db:f4:4e:
         1c:62:25:d3:b9:4a:ca:fb:d6:48:cb:bb:ec:ad:82:d2:1c:17:
         86:2c:ff:d8:4d:a2:9e:fb:a7:56:2c:66:44:01:40:71:2d:7d:
         ea:71:82:36:ac:55:c4:05:a5:0e:f1:5c:19:9b:79:fb:33:21:
         1e:b9:99:80:95:24:ef:7f:cb:fd:4f:a8:ed:94:ee:c2:60:50:
         2d:2f:36:7a:8f:d1:0e:fb:ea:4f:80:42:08:8b:d9:6f:5c:b3:
         e2:51:72:cd:12:4b:39:66:e1:b0:b9:c0:a1:09:b7:84:c8:45:
         6b:71:c5:08:77:bc:73:de:c1:82:8a:13:6a:56:ca:d4:04:94:
         21:ac:3f:24:6e:88:d0:bd:00:ec:1c:4a:7b:32:9f:6e:68:bf:
         44:51:70:ce:0c:54:e6:20:64:7c:ec:c1:95:c1:43:f5:5c:06:
         44:08:98:93:33:9c:44:85:18:95:16:5d:20:58:9a:fd:43:a0:
         a7:c9:a1:f5:ee:22:d1:3e:b3:bf:9f:b8:91:af:b5:f8:44:b0:
         a5:31:4c:ce:bf:d2:d8:b1:76:f1:82:6a:79:81:94:36:76:48:
         c1:e8:c8:65:9c:f3:29:5e:f2:83:50:4e:bc:34:a3:28:3b:16:
         0b:c5:3b:4d:06:66:81:24:21:e8:78:0c:73:d7:dd:a8:bd:51:
         eb:47:ce:0f:ee:16:22:62:48:8d:8f:f7:25:d4:c9:7a:6e:7c:
         66:6f:e9:89:a0:82:ea:fc:98:6e:4e:ab:9d:8c:21:47:6f:27:
         e9:6d:12:fc:7a:c4:54:64:ac:0c:58:cd:89:8b:ee:11:ac:ee:
         3d:47:e5:3b:da:8a:36:fd
-----BEGIN CERTIFICATE-----
MIIFrjCCA5agAwIBAgIBAzANBgkqhkiG9w0BAQUFADCBmDELMAkGA1UEBhMCU0Ux
EjAQBgNVBAgTCVN0b2NraG9sbTEVMBMGA1UEBxMMQk5TUy1HUk9VUC04MQwwCgYD
VQQKEwNLVEgxGzAZBgkqhkiG9w0BCQEWDGF0aWlxQGt0aC5zZTEzMDEGA1UEAxMq
U2VydmVyIENlcnRpZmljYXRlIHRvIENvbm5lY3QgdG8gU3RvY2tob2xtMB4XDTE2
MDMxMDE2MjgwOVoXDTE3MDMxMDE2MjgwOVowgYIxCzAJBgNVBAYTAlNFMRIwEAYD
VQQIEwlTdG9ja2hvbG0xDDAKBgNVBAoTA0tUSDEzMDEGA1UEAxMqU2VydmVyIENl
cnRpZmljYXRlIHRvIENvbm5lY3QgdG8gU3RvY2tob2xtMRwwGgYJKoZIhvcNAQkB
Fg1ob25vcmVAa3RoLnNlMIICIjANBgkqhkiG9w0BAQEFAAOCAg8AMIICCgKCAgEA
xxsIlF949iyaEash0aEp6EABoVgk2nUSa0aIHMdfKyGwIfNtRAcjc13vFUMJanSx
TiBVJ23TVjXZQProIzHdrfI14r3R235qf/q67Sw+h5P98OiMsfafcp3+vkytBorx
JQ7ohmnyxArBZ2UhcDDUonPF+eh+kO62dqmejERenstHCC3jot7BUq78LRJ0W2ak
eeAwWVow2FS9Tp4CQtV57oxq9vGoy+4OyzrxxtCLj253azcNK1yjcPClyOP6/APD
w3zOvFPEHDqlATfFf7g3Sx74zsXd+A2pGSP/c3LQBEOF1VELrshiwFtUVKpHyV7S
ZL8CRidrzID02qeO6WnP6+ATWjU/P5Wdl5XuYlsJgn8x+lIZsZiOBC/b51fFy8EX
j6P1yoRrPs/4zKUM5Nx2tHqyJh/HvgBlKIbg8QGw5k6J7WdLqqLsLrgkB/UKXZ3M
CNAs2RUVjDTsvHNrgGNrICg9xBvbJ6Vc4twQ8GQ8rdxB1b6cgnZ5Y53RDu1OTmdf
C87mS5qdGJsv95/n/iYSI1fr1ry70Iq2XOjAkJ15hBDExeBP3/DD2NuFrk9baDZp
r3ERV+W6Nyhx77AMFQOsEqzMAve5Zyrf+wNJ5X2HDI9gezgdppoVT/cGX6G4k7rR
A1zOfdUo4y+I7KcchSCjVSVzyDvdUWcVkT5CucnRFnsCAwEAAaMXMBUwEwYDVR0l
BAwwCgYIKwYBBQUHAwIwDQYJKoZIhvcNAQEFBQADggIBACnAICXEYqBRosRe38iG
m8F9XZxRuI1U624a3ydXQwNo3WW6XGjflzO+E6eQMzNDzDAeceynE/iX2wInlB2E
3SynL+Pxr2rn8bWilH4fVrWBQjxvUuRgyesyy37fJduN4kXa8qtgKIjDKiBcYZJY
1XbTslxDAM8nvnXojoQFENui/TUQFeSQY5VmZqiqaYo8XEwenkDIXTOQIrWd/FUQ
dHNUHLAiNb/acv3VgpGQTkBGaLHsQVCqW3EREzEiYKnpQzpR8Nv0ThxiJdO5Ssr7
1kjLu+ytgtIcF4Ys/9hNop77p1YsZkQBQHEtfepxgjasVcQFpQ7xXBmbefszIR65
mYCVJO9/y/1PqO2U7sJgUC0vNnqP0Q776k+AQgiL2W9cs+JRcs0SSzlm4bC5wKEJ
t4TIRWtxxQh3vHPewYKKE2pWytQElCGsPyRuiNC9AOwcSnsyn25ov0RRcM4MVOYg
ZHzswZXBQ/VcBkQImJMznESFGJUWXSBYmv1DoKfJofXuItE+s7+fuJGvtfhEsKUx
TM6/0tixdvGCanmBlDZ2SMHoyGWc8yle8oNQTrw0oyg7FgvFO00GZoEkIeh4DHPX
3ai9UetHzg/uFiJiSI2P9yXUyXpufGZv6Ymggur8mG5Oq52MIUdvJ+ltEvx6xFRk
rAxYzYmL7hGs7j1H5Tvaijb9
-----END CERTIFICATE-----
