Certificate:
    Data:
        Version: 3 (0x2)
        Serial Number: 4 (0x4)
    Signature Algorithm: sha1WithRSAEncryption
        Issuer: C=SE, ST=Stockholm, L=BNSS-GROUP-8, O=KTH/emailAddress=atiiq@kth.se, CN=Server Certificate to Connect to Stockholm
        Validity
            Not Before: Mar 10 17:43:14 2016 GMT
            Not After : Mar 10 17:43:14 2017 GMT
        Subject: C=SE, ST=Stockholm, O=KTH, CN=Server Certificate to Connect to Stockholm/emailAddress=suryas@kth.se
        Subject Public Key Info:
            Public Key Algorithm: rsaEncryption
                Public-Key: (4096 bit)
                Modulus:
                    00:97:f7:dc:2b:16:8f:97:f0:0f:27:0e:56:9d:58:
                    92:d5:41:ec:f8:be:bb:72:8c:45:ba:52:35:5c:06:
                    cd:9e:1c:a5:19:06:a7:9f:6c:0e:b2:73:7c:5d:57:
                    25:fd:6d:3c:1c:9b:2b:ce:66:22:8a:e4:ad:37:5d:
                    64:c9:48:eb:47:40:e6:13:33:6c:d1:41:b7:32:38:
                    76:c2:86:1a:4e:5f:c6:83:03:c9:71:6a:3b:52:cd:
                    19:04:5e:68:cb:12:32:56:fc:bf:31:0e:9a:c2:1b:
                    6d:10:ab:18:71:6f:e2:d5:de:63:5a:16:2b:5c:fe:
                    be:8b:94:e4:2b:e5:68:98:b6:1c:d1:94:18:aa:68:
                    a3:5a:29:86:c8:af:60:25:99:f1:85:0f:f3:78:1b:
                    d2:14:07:c2:f4:2b:3a:72:2f:51:dd:94:b4:73:2b:
                    58:6b:4a:90:02:66:e9:41:3f:a9:50:61:26:02:81:
                    5c:c3:1e:e7:41:ab:bf:55:6b:3b:b3:71:dc:20:a2:
                    94:e8:e6:22:5b:b8:ba:d1:d6:77:0d:32:e0:ba:e4:
                    e9:7c:b8:ed:de:67:b1:24:ca:12:c2:40:70:52:48:
                    84:25:ba:59:01:86:60:0a:18:91:e3:9c:ed:8c:c4:
                    bc:12:9f:8a:9b:b6:7d:79:55:1c:8e:20:49:63:74:
                    19:18:3a:72:db:c8:73:5f:80:66:2e:79:20:24:4f:
                    df:13:8c:fc:a2:8b:aa:58:bf:59:d1:a7:38:a0:1f:
                    d7:eb:ba:7b:ce:8d:fc:ba:7e:05:68:a6:16:d1:60:
                    de:a5:3f:b8:48:d8:ba:54:ec:d5:2d:e9:3d:a7:2c:
                    cb:9d:3e:ec:40:92:4a:e7:b0:39:da:5b:1b:2d:00:
                    ed:5f:35:84:d7:f1:42:9f:37:32:27:58:58:97:22:
                    f3:51:1a:9d:44:9e:1c:01:a2:74:c9:e7:c5:94:2d:
                    54:ab:c1:93:d0:99:5e:75:7c:2d:3c:56:9c:05:4a:
                    e9:c5:c1:cf:61:64:98:9e:27:df:29:b9:af:56:53:
                    66:8f:70:5e:34:a5:48:42:59:2d:87:71:f7:17:41:
                    25:53:f0:67:bb:90:4c:a9:c8:d9:b0:13:dd:0b:16:
                    eb:af:2f:4d:4d:b5:31:5d:12:0e:54:fa:99:c7:3c:
                    10:cc:ca:49:2f:32:3a:2d:0f:0b:bb:88:01:67:af:
                    8c:89:9c:23:de:57:bd:00:2a:f0:49:67:59:73:83:
                    3f:19:73:72:de:7b:9a:38:d1:9e:ce:60:e5:d2:b4:
                    3d:20:8f:69:3e:aa:7c:54:e7:d3:24:55:04:b9:da:
                    07:e6:41:56:2f:0a:ef:7c:72:76:52:92:72:6a:ed:
                    be:f5:db
                Exponent: 65537 (0x10001)
        X509v3 extensions:
            X509v3 Extended Key Usage: 
                TLS Web Client Authentication
    Signature Algorithm: sha1WithRSAEncryption
         28:ab:76:ee:73:09:14:70:ec:cd:cb:c8:63:8d:16:26:d3:4e:
         0e:e8:9a:81:e0:8e:07:7f:f6:13:8e:ec:f6:ba:3c:18:81:12:
         fb:a2:18:cf:62:49:1f:3f:18:82:48:23:27:4b:8a:c8:5f:94:
         c6:84:17:70:37:21:f6:82:b8:db:f1:77:7d:82:88:07:7e:23:
         ea:52:79:41:75:b6:0b:84:23:e2:1e:c5:02:7f:d7:0f:18:5c:
         8d:fd:e2:f6:0d:ec:c6:ae:98:a7:cd:71:57:7e:52:3c:f4:eb:
         da:45:64:41:17:20:da:29:f4:a4:8a:c6:7a:ca:42:d6:30:aa:
         b9:dd:89:da:88:4c:0d:b7:8a:29:e6:0d:6e:d7:b2:67:59:d2:
         90:64:b3:fc:9e:94:5d:fa:00:4d:c6:27:36:cd:c9:12:76:18:
         40:5b:d7:27:9d:2d:ce:01:b8:53:c1:89:ba:9a:99:eb:2c:38:
         14:ad:0c:ef:90:4a:08:bb:94:43:5c:a5:39:a7:07:0b:0b:f9:
         06:3f:f5:57:aa:59:dd:6d:b4:b3:58:50:96:cc:d7:b1:89:e0:
         8f:e4:48:ca:25:7c:59:65:8d:4a:89:b2:71:f1:78:35:d3:15:
         97:a3:8e:50:8c:5b:8e:ef:2d:1f:fb:53:b3:21:b2:21:78:7d:
         07:33:62:55:51:03:e7:5d:d6:60:92:60:2b:cb:80:0f:a2:04:
         36:9d:a4:2f:ae:cb:54:10:a2:56:3d:96:8c:e5:80:04:a0:eb:
         fe:79:6d:f9:c8:25:c4:71:c1:0c:8a:9d:82:0c:42:63:bf:01:
         63:37:2d:6a:ac:9d:f2:43:40:01:01:5a:ca:ad:2a:0b:49:dd:
         0c:b6:d7:24:e1:24:2a:d1:78:cf:5e:6e:33:47:5f:5c:a2:37:
         41:0e:33:3e:c4:4a:c3:01:14:59:ab:16:38:45:de:90:4b:98:
         92:af:43:d4:f6:37:28:15:87:0d:74:42:c2:6e:e2:93:c1:7a:
         1b:6d:94:2a:f1:de:9b:19:c9:2f:44:3f:a9:03:72:d0:d5:d0:
         17:75:6d:9d:83:a6:0a:8f:81:7c:b7:9a:21:5e:c0:a1:cd:d8:
         21:ac:1f:ae:68:80:44:ce:a8:20:2b:f3:d8:0b:0c:dd:3a:68:
         99:ed:ec:8f:8f:54:1d:68:90:64:a8:2b:0d:0f:27:35:5f:93:
         c3:c6:f2:d9:fc:25:c7:90:1a:46:b6:d3:fa:c2:fa:a8:31:b9:
         cd:91:3a:2a:b5:6c:c4:b8:9e:28:36:85:8b:76:05:17:8e:94:
         b6:f5:f8:fa:ca:6e:aa:a9:76:d4:5e:84:2c:96:02:be:b5:b9:
         29:8a:27:68:18:0a:b9:0f
-----BEGIN CERTIFICATE-----
MIIFrjCCA5agAwIBAgIBBDANBgkqhkiG9w0BAQUFADCBmDELMAkGA1UEBhMCU0Ux
EjAQBgNVBAgTCVN0b2NraG9sbTEVMBMGA1UEBxMMQk5TUy1HUk9VUC04MQwwCgYD
VQQKEwNLVEgxGzAZBgkqhkiG9w0BCQEWDGF0aWlxQGt0aC5zZTEzMDEGA1UEAxMq
U2VydmVyIENlcnRpZmljYXRlIHRvIENvbm5lY3QgdG8gU3RvY2tob2xtMB4XDTE2
MDMxMDE3NDMxNFoXDTE3MDMxMDE3NDMxNFowgYIxCzAJBgNVBAYTAlNFMRIwEAYD
VQQIEwlTdG9ja2hvbG0xDDAKBgNVBAoTA0tUSDEzMDEGA1UEAxMqU2VydmVyIENl
cnRpZmljYXRlIHRvIENvbm5lY3QgdG8gU3RvY2tob2xtMRwwGgYJKoZIhvcNAQkB
Fg1zdXJ5YXNAa3RoLnNlMIICIjANBgkqhkiG9w0BAQEFAAOCAg8AMIICCgKCAgEA
l/fcKxaPl/APJw5WnViS1UHs+L67coxFulI1XAbNnhylGQann2wOsnN8XVcl/W08
HJsrzmYiiuStN11kyUjrR0DmEzNs0UG3Mjh2woYaTl/GgwPJcWo7Us0ZBF5oyxIy
Vvy/MQ6awhttEKsYcW/i1d5jWhYrXP6+i5TkK+VomLYc0ZQYqmijWimGyK9gJZnx
hQ/zeBvSFAfC9Cs6ci9R3ZS0cytYa0qQAmbpQT+pUGEmAoFcwx7nQau/VWs7s3Hc
IKKU6OYiW7i60dZ3DTLguuTpfLjt3mexJMoSwkBwUkiEJbpZAYZgChiR45ztjMS8
Ep+Km7Z9eVUcjiBJY3QZGDpy28hzX4BmLnkgJE/fE4z8oouqWL9Z0ac4oB/X67p7
zo38un4FaKYW0WDepT+4SNi6VOzVLek9pyzLnT7sQJJK57A52lsbLQDtXzWE1/FC
nzcyJ1hYlyLzURqdRJ4cAaJ0yefFlC1Uq8GT0JledXwtPFacBUrpxcHPYWSYniff
KbmvVlNmj3BeNKVIQlkth3H3F0ElU/Bnu5BMqcjZsBPdCxbrry9NTbUxXRIOVPqZ
xzwQzMpJLzI6LQ8Lu4gBZ6+MiZwj3le9ACrwSWdZc4M/GXNy3nuaONGezmDl0rQ9
II9pPqp8VOfTJFUEudoH5kFWLwrvfHJ2UpJyau2+9dsCAwEAAaMXMBUwEwYDVR0l
BAwwCgYIKwYBBQUHAwIwDQYJKoZIhvcNAQEFBQADggIBACirdu5zCRRw7M3LyGON
FibTTg7omoHgjgd/9hOO7Pa6PBiBEvuiGM9iSR8/GIJIIydLishflMaEF3A3IfaC
uNvxd32CiAd+I+pSeUF1tguEI+IexQJ/1w8YXI394vYN7MaumKfNcVd+Ujz069pF
ZEEXINop9KSKxnrKQtYwqrndidqITA23iinmDW7XsmdZ0pBks/yelF36AE3GJzbN
yRJ2GEBb1yedLc4BuFPBibqamessOBStDO+QSgi7lENcpTmnBwsL+QY/9VeqWd1t
tLNYUJbM17GJ4I/kSMolfFlljUqJsnHxeDXTFZejjlCMW47vLR/7U7MhsiF4fQcz
YlVRA+dd1mCSYCvLgA+iBDadpC+uy1QQolY9lozlgASg6/55bfnIJcRxwQyKnYIM
QmO/AWM3LWqsnfJDQAEBWsqtKgtJ3Qy21yThJCrReM9ebjNHX1yiN0EOMz7ESsMB
FFmrFjhF3pBLmJKvQ9T2NygVhw10QsJu4pPBehttlCrx3psZyS9EP6kDctDV0Bd1
bZ2DpgqPgXy3miFewKHN2CGsH65ogETOqCAr89gLDN06aJnt7I+PVB1okGSoKw0P
JzVfk8PG8tn8JceQGka20/rC+qgxuc2ROiq1bMS4nig2hYt2BReOlLb1+PrKbqqp
dtRehCyWAr61uSmKJ2gYCrkP
-----END CERTIFICATE-----
