Certificate:
    Data:
        Version: 3 (0x2)
        Serial Number: 5 (0x5)
    Signature Algorithm: sha1WithRSAEncryption
        Issuer: C=SE, ST=Stockholm, L=BNSS-GROUP-8, O=KTH/emailAddress=atiiq@kth.se, CN=Server Certificate to Connect to Stockholm
        Validity
            Not Before: Mar 15 12:45:06 2016 GMT
            Not After : Mar 15 12:45:06 2017 GMT
        Subject: C=SE, ST=Stockholm, O=KTH, CN=Server Certificate to Connect to Stockholm/emailAddress=elspas@kth.se
        Subject Public Key Info:
            Public Key Algorithm: rsaEncryption
                Public-Key: (4096 bit)
                Modulus:
                    00:b4:22:1d:70:e3:1b:8a:98:f1:a4:45:ef:62:4d:
                    42:6b:85:49:e1:20:bd:9a:dd:5b:a6:4f:3b:2b:a4:
                    d7:15:2b:e8:99:f9:c6:f0:b7:6e:a4:91:98:f7:86:
                    0b:57:eb:9b:4b:8d:b8:4a:b6:76:80:a8:de:c3:f1:
                    ac:7c:68:46:62:45:b7:0f:cf:10:fd:2f:88:4b:b2:
                    97:c9:6b:a5:a1:8b:4b:01:f3:06:15:60:89:70:1b:
                    fb:79:e7:0b:ed:83:b4:77:3c:8e:23:63:10:b8:c4:
                    78:27:a0:30:eb:7f:bb:4e:a8:6f:3f:7d:e6:da:37:
                    53:78:ce:09:c2:8a:7f:08:e4:0c:86:28:ae:c8:78:
                    b5:8a:06:4f:41:11:92:73:f3:1e:54:52:b2:ca:f0:
                    45:99:1b:f5:70:b1:eb:30:a3:bf:52:48:33:ae:4b:
                    8c:7e:df:34:e4:2d:20:64:dc:43:0e:dd:b3:01:3c:
                    91:be:99:f8:2a:53:1c:9e:d0:d9:8c:0d:b3:94:b6:
                    04:dc:36:22:02:cf:d6:89:04:a7:6c:f1:93:76:3a:
                    42:4c:63:69:33:58:ad:d9:61:14:a1:68:85:ba:7f:
                    c0:2b:0b:7d:9f:1f:54:94:66:a8:2f:ff:43:65:8e:
                    79:32:50:71:69:b9:fd:00:fa:76:44:49:d6:38:46:
                    da:5a:4c:a4:32:02:8f:81:78:7c:dd:b7:cb:c7:57:
                    99:59:87:7b:39:c1:d8:02:7d:83:5c:f6:ca:fd:bc:
                    b8:9a:ef:56:74:2b:c9:7a:19:0f:14:fc:21:4f:22:
                    cc:c7:1f:96:da:ca:90:84:7f:cf:61:15:41:0a:dc:
                    de:cc:71:fd:9c:fc:fd:17:af:90:ce:34:a9:0f:c0:
                    0b:07:af:6d:d5:c7:b1:20:c5:6d:07:7c:10:17:78:
                    ba:df:c4:31:ca:40:49:ef:1d:5e:a2:ff:24:eb:c5:
                    40:85:93:cf:20:67:4d:10:4b:03:17:34:d4:15:3c:
                    11:ef:d8:8b:f4:01:93:47:2a:56:7f:eb:2a:f4:af:
                    62:e7:b2:13:84:e1:8f:93:10:7a:19:ad:f1:24:22:
                    a7:0f:66:17:87:2b:9b:c6:24:25:aa:52:9a:01:99:
                    26:6f:89:72:96:13:2d:02:67:b3:cf:f9:d5:f0:71:
                    7a:80:3d:25:36:58:db:cb:5f:93:bd:1b:1d:e6:f6:
                    f0:bb:be:64:5a:96:85:9c:3f:1b:a4:28:e4:9e:4a:
                    44:ab:d5:da:ad:b2:49:54:f0:bb:c5:fd:01:b9:ce:
                    65:5b:4a:99:5f:cb:f4:f0:13:3a:9f:ae:d2:f1:37:
                    69:00:d0:d0:9d:0c:d7:81:91:9f:05:b6:e0:46:c2:
                    0c:fc:a1
                Exponent: 65537 (0x10001)
        X509v3 extensions:
            X509v3 Extended Key Usage: 
                TLS Web Client Authentication
    Signature Algorithm: sha1WithRSAEncryption
         15:02:48:c4:15:f6:80:2d:be:20:ab:0a:e0:e0:21:f5:3f:24:
         26:c8:78:4d:39:f0:3f:2c:d3:cd:fa:b1:db:ab:1d:d8:57:c7:
         de:52:a5:57:bc:c2:c6:97:00:00:24:12:25:d6:14:d8:06:58:
         0d:77:b9:ba:5b:a8:96:25:4d:f6:3d:42:94:a1:4e:a5:6b:df:
         63:f0:f2:ec:a1:94:58:ce:32:18:aa:52:0b:70:20:14:04:4e:
         90:2c:20:cc:d4:fb:01:ac:4e:c8:10:37:57:58:7a:23:8b:65:
         f2:49:e3:b1:dd:33:6f:5a:4f:b5:0e:61:40:16:9e:29:91:f7:
         a6:4a:19:0c:7a:62:80:d3:65:b1:1a:04:b5:11:a5:4b:ea:74:
         0d:eb:33:65:df:11:cb:03:9a:75:40:3f:0b:a8:6b:10:e8:ec:
         a6:a2:d6:5a:0a:f6:80:98:e8:f1:cb:3f:73:0d:aa:2c:d7:66:
         bf:ee:86:26:db:97:55:e9:f5:bc:47:a3:dd:1f:3d:7d:b5:22:
         01:63:ae:8a:54:e7:78:a7:29:6a:9d:21:cb:a0:7b:b0:a7:89:
         b2:24:1e:26:d2:ba:80:e6:47:05:6e:36:a4:fa:56:d2:62:f7:
         61:d4:f4:9a:9b:9b:e0:9b:a3:fa:ce:0f:f4:83:1c:b1:b5:34:
         2f:af:39:1b:a5:17:d6:f8:69:60:3b:1c:29:ff:42:9f:c0:24:
         03:da:ef:c0:39:a8:a5:bc:f9:b4:2b:a4:3e:18:49:1f:c0:0b:
         4c:48:6d:da:70:a5:2b:6a:28:75:02:51:0e:fb:02:2e:fb:0a:
         ae:31:a1:29:7e:6e:9a:67:59:07:c2:dc:e3:65:eb:b9:bd:6f:
         0f:fa:d7:e4:cb:e7:57:a4:56:f2:4e:c4:0b:7f:f5:9c:98:e7:
         57:60:01:3b:52:d5:f8:48:09:b4:b8:74:03:2e:83:f2:b3:52:
         49:29:68:78:70:d8:b1:55:0f:cd:1a:ca:1d:e7:35:6a:ea:83:
         18:f6:68:02:56:b9:8f:3d:3f:96:01:b8:ad:3b:02:ab:88:7e:
         e4:7c:ab:3c:e1:a9:8d:91:60:3e:0e:63:33:c7:b6:d5:a8:60:
         11:09:ea:1a:2a:4d:ac:82:91:f4:c0:29:da:07:42:c7:2f:2b:
         65:c5:fe:81:7a:d5:85:9e:ef:52:a2:43:23:ef:39:95:37:57:
         33:6a:4d:5a:2d:51:c7:db:14:09:fc:fb:fb:e4:ff:98:e8:85:
         9d:67:f9:5b:14:89:09:02:d8:80:d2:7a:02:50:0a:94:94:c0:
         de:0c:af:93:cb:a6:2a:25:dc:d3:cb:91:90:db:67:43:9b:b8:
         1a:3d:ba:37:09:15:e4:df
-----BEGIN CERTIFICATE-----
MIIFrjCCA5agAwIBAgIBBTANBgkqhkiG9w0BAQUFADCBmDELMAkGA1UEBhMCU0Ux
EjAQBgNVBAgTCVN0b2NraG9sbTEVMBMGA1UEBxMMQk5TUy1HUk9VUC04MQwwCgYD
VQQKEwNLVEgxGzAZBgkqhkiG9w0BCQEWDGF0aWlxQGt0aC5zZTEzMDEGA1UEAxMq
U2VydmVyIENlcnRpZmljYXRlIHRvIENvbm5lY3QgdG8gU3RvY2tob2xtMB4XDTE2
MDMxNTEyNDUwNloXDTE3MDMxNTEyNDUwNlowgYIxCzAJBgNVBAYTAlNFMRIwEAYD
VQQIEwlTdG9ja2hvbG0xDDAKBgNVBAoTA0tUSDEzMDEGA1UEAxMqU2VydmVyIENl
cnRpZmljYXRlIHRvIENvbm5lY3QgdG8gU3RvY2tob2xtMRwwGgYJKoZIhvcNAQkB
Fg1lbHNwYXNAa3RoLnNlMIICIjANBgkqhkiG9w0BAQEFAAOCAg8AMIICCgKCAgEA
tCIdcOMbipjxpEXvYk1Ca4VJ4SC9mt1bpk87K6TXFSvomfnG8LdupJGY94YLV+ub
S424SrZ2gKjew/GsfGhGYkW3D88Q/S+IS7KXyWuloYtLAfMGFWCJcBv7eecL7YO0
dzyOI2MQuMR4J6Aw63+7TqhvP33m2jdTeM4Jwop/COQMhiiuyHi1igZPQRGSc/Me
VFKyyvBFmRv1cLHrMKO/UkgzrkuMft805C0gZNxDDt2zATyRvpn4KlMcntDZjA2z
lLYE3DYiAs/WiQSnbPGTdjpCTGNpM1it2WEUoWiFun/AKwt9nx9UlGaoL/9DZY55
MlBxabn9APp2REnWOEbaWkykMgKPgXh83bfLx1eZWYd7OcHYAn2DXPbK/by4mu9W
dCvJehkPFPwhTyLMxx+W2sqQhH/PYRVBCtzezHH9nPz9F6+QzjSpD8ALB69t1cex
IMVtB3wQF3i638QxykBJ7x1eov8k68VAhZPPIGdNEEsDFzTUFTwR79iL9AGTRypW
f+sq9K9i57IThOGPkxB6Ga3xJCKnD2YXhyubxiQlqlKaAZkmb4lylhMtAmezz/nV
8HF6gD0lNljby1+TvRsd5vbwu75kWpaFnD8bpCjknkpEq9XarbJJVPC7xf0Buc5l
W0qZX8v08BM6n67S8TdpANDQnQzXgZGfBbbgRsIM/KECAwEAAaMXMBUwEwYDVR0l
BAwwCgYIKwYBBQUHAwIwDQYJKoZIhvcNAQEFBQADggIBABUCSMQV9oAtviCrCuDg
IfU/JCbIeE058D8s0836sdurHdhXx95SpVe8wsaXAAAkEiXWFNgGWA13ubpbqJYl
TfY9QpShTqVr32Pw8uyhlFjOMhiqUgtwIBQETpAsIMzU+wGsTsgQN1dYeiOLZfJJ
47HdM29aT7UOYUAWnimR96ZKGQx6YoDTZbEaBLURpUvqdA3rM2XfEcsDmnVAPwuo
axDo7Kai1loK9oCY6PHLP3MNqizXZr/uhibbl1Xp9bxHo90fPX21IgFjropU53in
KWqdIcuge7CnibIkHibSuoDmRwVuNqT6VtJi92HU9Jqbm+Cbo/rOD/SDHLG1NC+v
ORulF9b4aWA7HCn/Qp/AJAPa78A5qKW8+bQrpD4YSR/AC0xIbdpwpStqKHUCUQ77
Ai77Cq4xoSl+bppnWQfC3ONl67m9bw/61+TL51ekVvJOxAt/9ZyY51dgATtS1fhI
CbS4dAMug/KzUkkpaHhw2LFVD80ayh3nNWrqgxj2aAJWuY89P5YBuK07AquIfuR8
qzzhqY2RYD4OYzPHttWoYBEJ6hoqTayCkfTAKdoHQscvK2XF/oF61YWe71KiQyPv
OZU3VzNqTVotUcfbFAn8+/vk/5johZ1n+VsUiQkC2IDSegJQCpSUwN4Mr5PLpiol
3NPLkZDbZ0ObuBo9ujcJFeTf
-----END CERTIFICATE-----
