Certificate:
    Data:
        Version: 3 (0x2)
        Serial Number: 6 (0x6)
    Signature Algorithm: sha1WithRSAEncryption
        Issuer: C=SE, ST=Stockholm, L=BNSS-GROUP-8, O=KTH/emailAddress=atiiq@kth.se, CN=Server Certificate to Connect to Stockholm
        Validity
            Not Before: Mar 15 20:06:21 2016 GMT
            Not After : Mar 15 20:06:21 2017 GMT
        Subject: C=SE, ST=Stockholm, O=KTH, CN=Server Certificate to Connect to Stockholm/emailAddress=syafiq.atiiq@gmail.com
        Subject Public Key Info:
            Public Key Algorithm: rsaEncryption
                Public-Key: (4096 bit)
                Modulus:
                    00:be:bf:2c:8d:9b:55:47:30:30:cd:f9:f3:41:b5:
                    e1:36:6f:b3:d6:d8:34:b7:29:2d:5f:9e:a9:02:a3:
                    2c:5f:2d:dc:76:03:8b:68:10:a0:2c:7d:2a:9e:07:
                    98:f1:87:23:09:99:60:7e:15:9b:78:66:05:24:52:
                    91:61:55:27:a5:27:c3:ce:c6:3d:28:67:f7:59:e3:
                    ee:90:c3:ea:65:13:b6:a1:d1:75:b0:1d:a8:d5:5b:
                    75:f2:6a:2f:81:93:7f:50:2f:50:99:a2:6b:6b:24:
                    aa:51:19:f9:34:78:b2:4e:19:ef:b2:99:1d:23:89:
                    aa:af:fb:86:fd:f6:28:d0:af:ac:33:83:13:a2:f6:
                    92:6b:4a:1b:d6:02:4e:d9:fc:ce:1e:90:1e:02:b4:
                    1e:3a:50:fa:09:e1:05:f2:6c:80:c7:01:f6:92:9a:
                    76:cc:7e:b6:b3:6f:94:d5:32:cd:31:05:23:93:63:
                    39:15:00:ba:5b:53:51:4d:f9:cd:ce:b7:a2:02:68:
                    83:c2:13:bf:64:a0:60:71:9a:23:5b:f1:ed:e3:ba:
                    02:3d:26:57:b2:6c:af:61:32:20:f8:f6:7b:ca:84:
                    aa:f8:9d:15:95:4e:f5:d9:b9:99:d8:05:01:f7:27:
                    f8:e9:2a:22:77:a1:dc:e5:d4:66:6c:7c:54:3b:63:
                    42:d2:cf:0c:9d:09:f0:67:be:49:2d:3c:24:b2:f5:
                    f7:23:42:f9:56:e3:45:a3:3e:46:1d:13:85:52:66:
                    b7:2d:c2:2e:e2:10:cc:4c:6b:62:c8:b9:9a:0e:51:
                    1e:b3:c6:cb:c8:8b:76:84:1e:b2:b8:e4:88:a0:8f:
                    f8:f5:d6:7d:73:67:26:2e:3e:e6:55:07:71:11:f8:
                    2a:9e:d0:04:3f:11:99:35:b1:74:0c:c8:0b:fb:ef:
                    c2:3c:27:7a:7b:0b:11:bf:9c:89:ad:57:7d:90:a5:
                    51:bd:d0:35:d2:8d:0f:87:52:57:45:39:91:85:c5:
                    57:e6:e1:ab:92:32:be:6f:46:7f:bb:ed:7d:97:5b:
                    53:9b:7f:06:68:75:19:0e:e6:fe:7d:19:1e:74:a2:
                    b6:e0:06:bf:1f:51:c9:a8:82:93:e2:91:21:ef:72:
                    c0:df:58:08:4d:f7:a2:fe:c7:52:85:e2:aa:56:58:
                    b7:cd:fe:ea:d1:13:83:e6:8e:7a:b9:88:72:54:d3:
                    41:b1:7a:9b:be:87:33:14:f5:ee:68:41:ad:dd:51:
                    12:7a:bf:bb:0f:92:11:c8:ab:99:f3:e2:b0:a0:ce:
                    a7:38:9a:74:2b:6a:02:68:c5:e0:04:30:d1:58:7a:
                    20:d7:54:33:be:de:ef:99:e2:fa:17:2c:7d:f9:8f:
                    cb:41:8b
                Exponent: 65537 (0x10001)
        X509v3 extensions:
            X509v3 Extended Key Usage: 
                TLS Web Client Authentication
    Signature Algorithm: sha1WithRSAEncryption
         1c:6b:be:08:c8:c6:b5:e4:2c:53:3b:e7:2c:2f:97:db:ad:e5:
         35:5a:d0:99:e0:e0:fe:35:c0:c1:54:9f:46:95:74:e2:5e:63:
         ed:5d:0e:89:f5:c5:f3:f1:fd:a4:b0:c4:b3:e9:50:96:8b:dc:
         ba:8b:c2:0e:4a:6b:e0:f1:c8:a0:a7:a5:5c:f2:1e:a6:fa:df:
         96:c9:d3:0e:d8:fe:d2:3a:49:b7:95:58:5e:f0:e3:89:fc:a8:
         94:74:0f:54:ca:0f:78:a0:0e:af:a2:07:49:f9:0e:3e:dc:38:
         cf:d0:f6:a9:ac:ee:60:56:6c:8f:69:2a:44:74:36:c0:7b:1e:
         36:91:43:f4:a0:1e:08:79:08:e8:cc:2c:35:0e:90:b4:84:4c:
         b6:61:24:91:54:b3:a4:38:f6:0f:c3:69:27:43:22:8e:cf:95:
         93:25:79:37:12:e7:ba:8c:ca:55:ff:db:ae:4a:54:9f:87:62:
         40:c8:bf:2b:2b:30:89:85:d4:61:2e:5f:04:08:e8:b2:da:e7:
         02:3a:d1:50:29:1f:95:ad:0f:03:88:3e:8d:88:35:c8:9f:6d:
         6f:88:12:78:20:27:0b:3a:4c:bd:7d:2c:41:fd:49:08:30:03:
         57:b6:74:26:c5:94:86:c5:77:18:da:c6:5e:e7:aa:50:e0:bd:
         59:98:ee:9f:36:9a:a7:5d:53:24:8f:40:e7:80:88:c4:ed:e3:
         1a:69:f5:6b:3b:36:e7:f7:42:bc:fb:04:54:c5:0c:5c:70:59:
         1e:aa:a8:d5:a9:2f:d1:f3:4f:af:29:4d:4f:41:63:58:d3:76:
         4a:73:a8:1c:77:8a:2f:06:92:01:3e:bf:33:94:90:3a:64:a7:
         7e:41:3e:6e:fb:39:4d:e0:8e:4d:cc:b8:36:f5:10:82:20:e9:
         53:f4:de:49:24:5e:87:c8:f6:93:f7:2e:d5:50:77:1d:7b:ae:
         a7:f3:2c:b0:9a:ae:9d:68:8a:c1:2c:f6:7e:7f:01:35:23:cd:
         59:1e:6a:50:a9:69:c6:e8:18:6c:48:d5:b0:69:90:8f:62:89:
         3f:90:64:7d:5e:63:27:4d:be:5a:73:0f:76:58:8a:e5:ba:b5:
         e9:cc:b8:1d:93:a9:78:76:03:10:19:29:b6:a7:c8:4d:47:69:
         47:b0:7f:79:3a:f5:35:80:c7:b3:18:e9:b6:c9:cd:00:c3:f1:
         e2:a2:18:c2:0d:96:07:8a:84:84:81:69:eb:ab:e2:80:be:d5:
         c9:9e:1d:68:58:ff:2b:d6:83:53:5e:57:18:6a:e7:03:14:c9:
         ad:25:b3:48:d5:54:52:0c:a1:ed:de:34:6f:f6:7b:df:da:28:
         b9:8e:b3:e1:0b:da:0d:b0
-----BEGIN CERTIFICATE-----
MIIFtzCCA5+gAwIBAgIBBjANBgkqhkiG9w0BAQUFADCBmDELMAkGA1UEBhMCU0Ux
EjAQBgNVBAgTCVN0b2NraG9sbTEVMBMGA1UEBxMMQk5TUy1HUk9VUC04MQwwCgYD
VQQKEwNLVEgxGzAZBgkqhkiG9w0BCQEWDGF0aWlxQGt0aC5zZTEzMDEGA1UEAxMq
U2VydmVyIENlcnRpZmljYXRlIHRvIENvbm5lY3QgdG8gU3RvY2tob2xtMB4XDTE2
MDMxNTIwMDYyMVoXDTE3MDMxNTIwMDYyMVowgYsxCzAJBgNVBAYTAlNFMRIwEAYD
VQQIEwlTdG9ja2hvbG0xDDAKBgNVBAoTA0tUSDEzMDEGA1UEAxMqU2VydmVyIENl
cnRpZmljYXRlIHRvIENvbm5lY3QgdG8gU3RvY2tob2xtMSUwIwYJKoZIhvcNAQkB
FhZzeWFmaXEuYXRpaXFAZ21haWwuY29tMIICIjANBgkqhkiG9w0BAQEFAAOCAg8A
MIICCgKCAgEAvr8sjZtVRzAwzfnzQbXhNm+z1tg0tyktX56pAqMsXy3cdgOLaBCg
LH0qngeY8YcjCZlgfhWbeGYFJFKRYVUnpSfDzsY9KGf3WePukMPqZRO2odF1sB2o
1Vt18movgZN/UC9QmaJraySqURn5NHiyThnvspkdI4mqr/uG/fYo0K+sM4MTovaS
a0ob1gJO2fzOHpAeArQeOlD6CeEF8myAxwH2kpp2zH62s2+U1TLNMQUjk2M5FQC6
W1NRTfnNzreiAmiDwhO/ZKBgcZojW/Ht47oCPSZXsmyvYTIg+PZ7yoSq+J0VlU71
2bmZ2AUB9yf46Soid6Hc5dRmbHxUO2NC0s8MnQnwZ75JLTwksvX3I0L5VuNFoz5G
HROFUma3LcIu4hDMTGtiyLmaDlEes8bLyIt2hB6yuOSIoI/49dZ9c2cmLj7mVQdx
EfgqntAEPxGZNbF0DMgL++/CPCd6ewsRv5yJrVd9kKVRvdA10o0Ph1JXRTmRhcVX
5uGrkjK+b0Z/u+19l1tTm38GaHUZDub+fRkedKK24Aa/H1HJqIKT4pEh73LA31gI
Tfei/sdSheKqVli3zf7q0ROD5o56uYhyVNNBsXqbvoczFPXuaEGt3VESer+7D5IR
yKuZ8+KwoM6nOJp0K2oCaMXgBDDRWHog11Qzvt7vmeL6Fyx9+Y/LQYsCAwEAAaMX
MBUwEwYDVR0lBAwwCgYIKwYBBQUHAwIwDQYJKoZIhvcNAQEFBQADggIBABxrvgjI
xrXkLFM75ywvl9ut5TVa0Jng4P41wMFUn0aVdOJeY+1dDon1xfPx/aSwxLPpUJaL
3LqLwg5Ka+DxyKCnpVzyHqb635bJ0w7Y/tI6SbeVWF7w44n8qJR0D1TKD3igDq+i
B0n5Dj7cOM/Q9qms7mBWbI9pKkR0NsB7HjaRQ/SgHgh5COjMLDUOkLSETLZhJJFU
s6Q49g/DaSdDIo7PlZMleTcS57qMylX/265KVJ+HYkDIvysrMImF1GEuXwQI6LLa
5wI60VApH5WtDwOIPo2INcifbW+IEnggJws6TL19LEH9SQgwA1e2dCbFlIbFdxja
xl7nqlDgvVmY7p82mqddUySPQOeAiMTt4xpp9Ws7Nuf3Qrz7BFTFDFxwWR6qqNWp
L9HzT68pTU9BY1jTdkpzqBx3ii8GkgE+vzOUkDpkp35BPm77OU3gjk3MuDb1EIIg
6VP03kkkXofI9pP3LtVQdx17rqfzLLCarp1oisEs9n5/ATUjzVkealCpacboGGxI
1bBpkI9iiT+QZH1eYydNvlpzD3ZYiuW6tenMuB2TqXh2AxAZKbanyE1HaUewf3k6
9TWAx7MY6bbJzQDD8eKiGMINlgeKhISBaeur4oC+1cmeHWhY/yvWg1NeVxhq5wMU
ya0ls0jVVFIMoe3eNG/2e9/aKLmOs+EL2g2w
-----END CERTIFICATE-----
