Certificate:
    Data:
        Version: 3 (0x2)
        Serial Number: 7 (0x7)
    Signature Algorithm: sha1WithRSAEncryption
        Issuer: C=SE, ST=Stockholm, L=BNSS-GROUP-8, O=KTH/emailAddress=atiiq@kth.se, CN=Server Certificate to Connect to Stockholm
        Validity
            Not Before: Mar 15 20:11:28 2016 GMT
            Not After : Mar 15 20:11:28 2017 GMT
        Subject: C=SE, ST=Stockholm, O=KTH, CN=Cert for Syafiq/emailAddress=syafiq.atiiq@gmail.com
        Subject Public Key Info:
            Public Key Algorithm: rsaEncryption
                Public-Key: (4096 bit)
                Modulus:
                    00:ad:f0:0a:e4:30:72:7b:4a:eb:eb:b1:54:42:79:
                    a5:03:a8:16:8e:27:d4:30:9f:8e:c9:d7:0e:61:3e:
                    50:21:04:98:5f:f6:91:f1:de:c1:79:4d:58:3f:be:
                    9a:6f:43:f5:68:17:b4:6b:32:d8:cd:f1:6a:df:8b:
                    84:cd:c2:21:e0:45:0e:f6:0c:7c:d8:37:16:f7:b4:
                    7e:62:ae:9f:fd:5b:e4:8b:88:d0:1b:af:89:84:b2:
                    6b:c2:65:41:33:6a:a1:4d:1c:1f:c7:6e:bc:3d:17:
                    96:5b:6f:0c:03:da:70:45:2a:4f:8c:5a:0b:86:a6:
                    ac:84:fb:02:59:f4:6f:75:63:fc:78:1c:db:46:f1:
                    f3:78:c2:0d:19:2d:34:10:60:3f:39:94:6d:4c:a8:
                    d2:a8:0d:e0:94:9e:de:0b:7b:47:8f:c2:78:81:74:
                    e1:83:08:36:d4:51:b7:18:45:ff:d1:d7:13:3a:23:
                    f7:c8:5c:f8:cb:d1:73:df:43:6d:6e:24:a7:c7:bb:
                    37:f5:22:de:1f:d6:ec:c1:e7:71:bc:47:a7:0b:2a:
                    1b:cf:45:91:0e:e3:ef:63:98:bc:47:2d:20:78:c6:
                    ea:d9:72:1e:26:65:f1:b7:26:77:d4:e4:92:ff:28:
                    a8:06:56:4a:b0:3e:0c:1f:aa:d2:35:d1:a0:23:a8:
                    88:af:0b:1f:a6:5f:12:06:28:3d:da:75:8b:76:ba:
                    3a:e8:71:93:86:89:4d:b6:72:51:28:39:7a:0c:9e:
                    5c:53:9b:aa:ff:5c:62:83:72:23:94:30:7f:fe:d7:
                    1d:a7:d8:be:89:19:f8:c3:2b:ee:c1:2c:89:ff:84:
                    d9:d1:61:0b:60:78:64:fc:82:51:bc:c1:c5:95:a5:
                    59:98:0e:35:12:02:cc:29:f7:e5:11:3e:25:1d:97:
                    75:db:17:25:5b:a4:5d:9f:3b:f5:6f:0a:5a:07:42:
                    81:19:91:39:d2:fd:69:36:38:8a:91:8f:d4:7e:89:
                    c1:f1:fc:df:f3:3e:74:e3:53:37:1b:24:e8:06:1e:
                    88:dd:d6:de:c7:19:1b:a8:c5:ff:02:37:a2:10:d7:
                    a4:23:8a:c5:0c:c9:e7:18:cd:90:d1:76:c0:6d:dc:
                    d3:fe:91:e1:38:4f:58:3a:82:75:6e:ec:93:0f:d4:
                    d8:ad:ee:3b:4d:c6:a4:f9:c0:3f:d5:40:c9:52:d3:
                    d1:e4:ef:10:ef:10:d5:2a:21:a2:f3:01:c1:2b:67:
                    68:07:73:80:29:1b:9b:93:98:10:a0:e9:61:19:bf:
                    25:64:7b:1e:ed:b2:d4:5a:72:c7:ee:d1:40:e0:c0:
                    34:8c:ed:44:06:c5:bd:be:3d:2b:aa:fd:53:61:d3:
                    3a:12:07
                Exponent: 65537 (0x10001)
        X509v3 extensions:
            X509v3 Extended Key Usage: 
                TLS Web Client Authentication
    Signature Algorithm: sha1WithRSAEncryption
         9c:8f:2f:a8:74:67:90:69:d0:52:14:c1:b9:72:dd:1d:52:de:
         42:4d:fd:32:f7:89:3e:56:d3:fe:1c:4e:37:aa:de:c8:a3:6f:
         5c:07:6b:46:57:10:d1:fc:31:b5:8a:73:35:c2:17:c8:18:2d:
         69:3f:ea:13:66:d7:9a:d5:60:e8:cb:27:c4:c2:e0:64:47:e0:
         91:31:2b:c0:6f:a8:85:1c:db:d6:6b:cb:ee:78:0b:3f:ad:c0:
         bb:bf:03:92:67:7c:a7:cc:92:44:51:27:64:84:36:07:44:ab:
         10:c3:9b:77:48:6c:00:8e:8d:63:71:3d:e9:70:0d:df:82:14:
         28:6f:a2:92:c7:e9:72:f7:77:15:48:0c:13:71:fa:31:89:27:
         ad:92:c0:86:fd:88:cd:da:8e:56:a2:aa:b4:5a:99:28:76:35:
         c9:3a:13:65:48:0d:53:a5:36:38:06:8c:9c:22:38:ef:a6:7d:
         1e:f3:31:b1:94:ca:bb:b2:bb:0f:24:79:3e:e5:b8:7b:ed:16:
         da:21:e5:5b:18:7a:1d:24:17:15:f1:ea:8a:76:f9:80:f2:00:
         85:53:ef:f5:0f:4e:d5:dc:9a:50:77:0b:39:57:4a:72:17:1b:
         38:45:eb:93:d5:19:5f:2a:94:79:10:52:96:51:d6:b1:2e:9c:
         a3:1d:0d:3a:db:ee:c0:16:dc:ac:de:d5:85:fb:fb:c3:a1:3a:
         e7:84:92:ec:32:84:96:e9:8c:54:92:1a:f9:ec:33:ea:36:a4:
         9c:5f:7b:fb:4d:5e:48:bf:55:c6:13:9b:ae:82:f2:5a:ea:42:
         33:1d:a9:ba:b4:e5:56:83:7a:2f:fa:47:1d:c4:25:1e:75:cd:
         1f:16:13:14:f3:2d:1b:6d:5f:e3:81:6a:39:d6:b0:2a:f7:3c:
         c0:58:17:2b:dd:dc:9d:2f:d1:c0:98:94:97:56:43:b5:6f:4c:
         e8:00:c5:0d:1a:68:75:5b:bd:e4:d0:b6:a8:ba:28:ec:ab:c7:
         83:9b:9a:e5:c7:b1:ab:16:be:49:bd:ca:fd:ea:06:00:59:b2:
         1d:e9:94:99:97:90:44:21:f4:e0:49:61:08:da:cc:2b:7e:17:
         2b:e9:c3:3e:f0:a5:90:bf:62:01:52:b8:4a:7f:d0:00:2b:07:
         b9:13:a8:38:20:36:1b:21:87:49:51:c9:68:e6:a0:52:75:1e:
         77:ed:7e:25:53:1b:b8:ef:02:c6:c0:66:fd:2e:2a:a6:76:b0:
         4f:03:c9:6d:a8:01:40:76:6a:56:7e:e1:81:83:53:43:92:4f:
         5c:12:61:d4:66:ef:a5:8b:12:cd:67:f6:58:0e:c3:2a:78:a7:
         95:5e:cd:de:cb:ca:10:09
-----BEGIN CERTIFICATE-----
MIIFmzCCA4OgAwIBAgIBBzANBgkqhkiG9w0BAQUFADCBmDELMAkGA1UEBhMCU0Ux
EjAQBgNVBAgTCVN0b2NraG9sbTEVMBMGA1UEBxMMQk5TUy1HUk9VUC04MQwwCgYD
VQQKEwNLVEgxGzAZBgkqhkiG9w0BCQEWDGF0aWlxQGt0aC5zZTEzMDEGA1UEAxMq
U2VydmVyIENlcnRpZmljYXRlIHRvIENvbm5lY3QgdG8gU3RvY2tob2xtMB4XDTE2
MDMxNTIwMTEyOFoXDTE3MDMxNTIwMTEyOFowcDELMAkGA1UEBhMCU0UxEjAQBgNV
BAgTCVN0b2NraG9sbTEMMAoGA1UEChMDS1RIMRgwFgYDVQQDEw9DZXJ0IGZvciBT
eWFmaXExJTAjBgkqhkiG9w0BCQEWFnN5YWZpcS5hdGlpcUBnbWFpbC5jb20wggIi
MA0GCSqGSIb3DQEBAQUAA4ICDwAwggIKAoICAQCt8ArkMHJ7SuvrsVRCeaUDqBaO
J9Qwn47J1w5hPlAhBJhf9pHx3sF5TVg/vppvQ/VoF7RrMtjN8Wrfi4TNwiHgRQ72
DHzYNxb3tH5irp/9W+SLiNAbr4mEsmvCZUEzaqFNHB/Hbrw9F5ZbbwwD2nBFKk+M
WguGpqyE+wJZ9G91Y/x4HNtG8fN4wg0ZLTQQYD85lG1MqNKoDeCUnt4Le0ePwniB
dOGDCDbUUbcYRf/R1xM6I/fIXPjL0XPfQ21uJKfHuzf1It4f1uzB53G8R6cLKhvP
RZEO4+9jmLxHLSB4xurZch4mZfG3JnfU5JL/KKgGVkqwPgwfqtI10aAjqIivCx+m
XxIGKD3adYt2ujrocZOGiU22clEoOXoMnlxTm6r/XGKDciOUMH/+1x2n2L6JGfjD
K+7BLIn/hNnRYQtgeGT8glG8wcWVpVmYDjUSAswp9+URPiUdl3XbFyVbpF2fO/Vv
CloHQoEZkTnS/Wk2OIqRj9R+icHx/N/zPnTjUzcbJOgGHojd1t7HGRuoxf8CN6IQ
16QjisUMyecYzZDRdsBt3NP+keE4T1g6gnVu7JMP1Nit7jtNxqT5wD/VQMlS09Hk
7xDvENUqIaLzAcErZ2gHc4ApG5uTmBCg6WEZvyVkex7tstRacsfu0UDgwDSM7UQG
xb2+PSuq/VNh0zoSBwIDAQABoxcwFTATBgNVHSUEDDAKBggrBgEFBQcDAjANBgkq
hkiG9w0BAQUFAAOCAgEAnI8vqHRnkGnQUhTBuXLdHVLeQk39MveJPlbT/hxON6re
yKNvXAdrRlcQ0fwxtYpzNcIXyBgtaT/qE2bXmtVg6MsnxMLgZEfgkTErwG+ohRzb
1mvL7ngLP63Au78Dkmd8p8ySRFEnZIQ2B0SrEMObd0hsAI6NY3E96XAN34IUKG+i
ksfpcvd3FUgME3H6MYknrZLAhv2IzdqOVqKqtFqZKHY1yToTZUgNU6U2OAaMnCI4
76Z9HvMxsZTKu7K7DyR5PuW4e+0W2iHlWxh6HSQXFfHqinb5gPIAhVPv9Q9O1dya
UHcLOVdKchcbOEXrk9UZXyqUeRBSllHWsS6cox0NOtvuwBbcrN7Vhfv7w6E654SS
7DKElumMVJIa+ewz6jaknF97+01eSL9VxhObroLyWupCMx2purTlVoN6L/pHHcQl
HnXNHxYTFPMtG21f44FqOdawKvc8wFgXK93cnS/RwJiUl1ZDtW9M6ADFDRpodVu9
5NC2qLoo7KvHg5ua5cexqxa+Sb3K/eoGAFmyHemUmZeQRCH04ElhCNrMK34XK+nD
PvClkL9iAVK4Sn/QACsHuROoOCA2GyGHSVHJaOagUnUed+1+JVMbuO8CxsBm/S4q
pnawTwPJbagBQHZqVn7hgYNTQ5JPXBJh1GbvpYsSzWf2WA7DKninlV7N3svKEAk=
-----END CERTIFICATE-----
