Certificate:
    Data:
        Version: 3 (0x2)
        Serial Number: 8 (0x8)
    Signature Algorithm: sha1WithRSAEncryption
        Issuer: C=SE, ST=Stockholm, L=BNSS-GROUP-8, O=KTH/emailAddress=atiiq@kth.se, CN=Server Certificate to Connect to Stockholm
        Validity
            Not Before: Mar 16 13:28:34 2016 GMT
            Not After : Mar 16 13:28:34 2017 GMT
        Subject: C=SE, ST=Stockholm, O=KTH, CN=Cert for Panos/emailAddress=papadim@kth.se
        Subject Public Key Info:
            Public Key Algorithm: rsaEncryption
                Public-Key: (4096 bit)
                Modulus:
                    00:ce:11:f6:5c:14:22:5b:09:68:b7:37:f3:d1:19:
                    f7:fc:31:59:9b:e6:08:ef:f5:24:b8:24:30:aa:71:
                    91:ae:79:a4:76:df:b6:83:50:36:ca:fb:ac:8e:3e:
                    25:8c:ed:84:40:60:10:d9:82:c8:87:22:64:e2:1c:
                    f0:d8:c9:86:84:91:32:7e:43:9a:bc:61:8e:9b:73:
                    5e:f6:e1:4d:7a:4f:36:02:95:71:92:0d:31:19:c6:
                    bd:71:56:e5:9a:57:1b:b7:e1:ac:d3:b1:17:dc:ce:
                    f1:4b:f9:80:33:1c:1b:b1:80:b1:66:d6:bb:e1:15:
                    89:b0:6c:7e:50:c6:e1:58:41:90:05:cd:77:5d:16:
                    69:53:a4:de:e9:a9:00:8c:20:3e:14:f4:3b:f1:8b:
                    47:6f:31:7f:8b:4f:4d:fe:b8:a2:18:0a:a2:a6:c9:
                    70:46:e1:0a:f1:13:88:99:5e:6d:94:8b:bc:c8:93:
                    16:4e:9e:81:c7:cd:4d:f9:29:57:0c:03:34:0f:55:
                    91:ce:f9:e3:07:2c:6c:8b:42:4d:4b:ee:06:52:39:
                    46:c4:e9:e7:41:56:df:4a:e9:d0:e3:df:41:3d:98:
                    7b:70:95:3e:d4:8e:76:2d:4f:20:c2:f8:62:61:4c:
                    8c:9d:87:b1:d4:3a:6e:d7:1f:32:b6:d6:f9:12:db:
                    b9:7d:bb:af:39:02:af:3c:f6:c9:d4:5c:4f:37:34:
                    4b:ce:68:1d:d3:36:dc:37:fd:c1:ed:fb:3b:52:bb:
                    fd:3b:15:e0:6a:20:f5:49:0e:e8:86:e9:3d:7a:1c:
                    54:a1:ac:78:8a:9e:eb:ca:34:f2:b9:5e:05:41:dd:
                    33:f8:93:f7:17:66:75:f9:86:83:24:f9:0c:31:13:
                    3d:1f:96:88:e1:77:bc:fc:9b:c4:57:61:a6:6c:02:
                    bc:22:b3:72:a3:b5:99:65:7d:51:fd:7b:63:9e:48:
                    17:8a:9e:f9:f6:53:b7:f4:9f:9e:91:75:b1:f4:3d:
                    a5:22:e0:35:d8:63:8c:f5:46:33:a0:dc:6e:1a:0e:
                    8c:5a:19:09:bc:32:dd:e7:2b:8e:a4:e5:67:0d:a6:
                    2f:fb:33:e6:d1:67:41:b2:d4:ce:e6:e4:f6:1d:83:
                    16:59:b3:c1:f5:7c:9e:5f:24:34:3e:09:a1:89:2b:
                    e5:f4:b8:76:f1:17:08:be:c0:3e:29:dc:89:57:cc:
                    13:e3:6f:81:3a:77:2b:fc:c7:81:3c:c3:66:c6:f2:
                    dd:55:61:ef:92:c5:91:01:7e:be:49:ad:5d:97:53:
                    fe:84:c7:57:11:4f:47:4c:f9:f0:1f:3b:1f:2b:3a:
                    1b:7f:32:81:cb:fa:90:85:b3:05:63:0c:00:0c:bd:
                    c8:91:93
                Exponent: 65537 (0x10001)
        X509v3 extensions:
            X509v3 Extended Key Usage: 
                TLS Web Client Authentication
    Signature Algorithm: sha1WithRSAEncryption
         92:ed:ef:1e:8a:cc:33:fe:55:f0:15:ac:68:bb:36:88:9d:a4:
         cf:07:5c:f8:78:df:10:b1:a9:ed:6a:48:ba:18:de:b4:2e:f2:
         e1:3d:f3:3d:47:f3:f3:89:28:f7:d4:2a:bb:2a:93:4c:ab:ac:
         ab:94:4d:ed:1a:92:97:33:a5:91:7d:04:f3:3d:89:5f:c7:f5:
         81:55:e9:9f:2c:b3:47:e4:a4:42:0a:f1:53:0a:7b:d3:cb:e6:
         4e:bb:c3:28:b2:c5:5f:0a:3e:2f:b7:96:b9:06:0c:6f:26:b4:
         d6:da:07:8a:6d:a9:28:1d:8f:8d:4d:5b:1f:12:ad:d1:8b:09:
         ae:95:74:93:4f:4d:3a:c1:dd:e6:6f:0b:d4:7f:b6:0d:40:9e:
         ee:1e:1b:d8:81:09:08:46:43:d7:ac:06:31:07:31:93:8e:03:
         9d:01:e9:52:33:21:53:14:03:9b:1d:5a:af:e5:c8:52:4e:90:
         e6:88:15:a2:06:5a:49:59:96:da:8e:f4:85:e8:09:89:52:1e:
         7c:bc:92:da:3e:42:68:ed:73:b7:c4:e8:68:e9:33:ef:c8:ee:
         d1:4c:3a:12:d9:5a:4f:ec:18:10:c9:f3:35:7c:8f:e8:4d:77:
         d1:7c:39:1d:e1:63:54:52:69:c6:c3:cc:90:79:f1:b3:cd:bd:
         f3:5a:24:f0:7b:7d:a8:c8:68:18:c8:53:0d:f9:b2:89:e5:90:
         11:5f:79:a5:52:72:96:16:b9:d9:26:1d:02:30:98:71:49:58:
         59:a9:d0:37:1b:ab:60:55:c8:ec:aa:0b:b2:1a:89:da:24:3a:
         32:26:be:59:31:06:2f:02:84:53:06:ac:8f:39:15:33:df:9e:
         70:31:5a:a9:1d:f8:30:be:98:a1:6b:0c:8c:d0:c6:4d:5a:3a:
         78:94:6b:d3:71:56:ef:8b:ab:0d:57:27:4d:f5:4a:35:ee:c6:
         d0:74:62:87:2a:69:f3:bf:6b:07:75:be:53:ba:08:4c:a8:dc:
         4e:c4:ae:19:3c:cb:d6:48:98:a3:f4:51:c6:f7:9a:a0:10:74:
         8b:80:63:20:8c:f6:0d:3f:b0:5f:2d:c0:0b:26:92:39:0f:46:
         73:c2:99:72:e9:23:ee:ae:bd:db:96:9f:2a:74:ef:e6:cc:30:
         e5:ed:41:26:5e:46:82:38:39:29:10:b2:ba:d1:57:a2:2d:8e:
         c3:f6:ab:c5:07:a1:39:74:f9:0d:3a:02:3f:73:f1:5f:8e:55:
         09:1a:0e:75:cf:ea:96:33:da:a8:e5:26:d9:77:88:f2:b6:27:
         05:e7:74:a5:82:6e:5a:00:f1:0a:b4:d6:dc:e4:5a:4c:2c:a3:
         19:79:b2:59:18:96:3d:73
-----BEGIN CERTIFICATE-----
MIIFkjCCA3qgAwIBAgIBCDANBgkqhkiG9w0BAQUFADCBmDELMAkGA1UEBhMCU0Ux
EjAQBgNVBAgTCVN0b2NraG9sbTEVMBMGA1UEBxMMQk5TUy1HUk9VUC04MQwwCgYD
VQQKEwNLVEgxGzAZBgkqhkiG9w0BCQEWDGF0aWlxQGt0aC5zZTEzMDEGA1UEAxMq
U2VydmVyIENlcnRpZmljYXRlIHRvIENvbm5lY3QgdG8gU3RvY2tob2xtMB4XDTE2
MDMxNjEzMjgzNFoXDTE3MDMxNjEzMjgzNFowZzELMAkGA1UEBhMCU0UxEjAQBgNV
BAgTCVN0b2NraG9sbTEMMAoGA1UEChMDS1RIMRcwFQYDVQQDEw5DZXJ0IGZvciBQ
YW5vczEdMBsGCSqGSIb3DQEJARYOcGFwYWRpbUBrdGguc2UwggIiMA0GCSqGSIb3
DQEBAQUAA4ICDwAwggIKAoICAQDOEfZcFCJbCWi3N/PRGff8MVmb5gjv9SS4JDCq
cZGueaR237aDUDbK+6yOPiWM7YRAYBDZgsiHImTiHPDYyYaEkTJ+Q5q8YY6bc172
4U16TzYClXGSDTEZxr1xVuWaVxu34azTsRfczvFL+YAzHBuxgLFm1rvhFYmwbH5Q
xuFYQZAFzXddFmlTpN7pqQCMID4U9Dvxi0dvMX+LT03+uKIYCqKmyXBG4QrxE4iZ
Xm2Ui7zIkxZOnoHHzU35KVcMAzQPVZHO+eMHLGyLQk1L7gZSOUbE6edBVt9K6dDj
30E9mHtwlT7UjnYtTyDC+GJhTIydh7HUOm7XHzK21vkS27l9u685Aq889snUXE83
NEvOaB3TNtw3/cHt+ztSu/07FeBqIPVJDuiG6T16HFShrHiKnuvKNPK5XgVB3TP4
k/cXZnX5hoMk+QwxEz0flojhd7z8m8RXYaZsArwis3KjtZllfVH9e2OeSBeKnvn2
U7f0n56RdbH0PaUi4DXYY4z1RjOg3G4aDoxaGQm8Mt3nK46k5WcNpi/7M+bRZ0Gy
1M7m5PYdgxZZs8H1fJ5fJDQ+CaGJK+X0uHbxFwi+wD4p3IlXzBPjb4E6dyv8x4E8
w2bG8t1VYe+SxZEBfr5JrV2XU/6Ex1cRT0dM+fAfOx8rOht/MoHL+pCFswVjDAAM
vciRkwIDAQABoxcwFTATBgNVHSUEDDAKBggrBgEFBQcDAjANBgkqhkiG9w0BAQUF
AAOCAgEAku3vHorMM/5V8BWsaLs2iJ2kzwdc+HjfELGp7WpIuhjetC7y4T3zPUfz
84ko99QquyqTTKusq5RN7RqSlzOlkX0E8z2JX8f1gVXpnyyzR+SkQgrxUwp708vm
TrvDKLLFXwo+L7eWuQYMbya01toHim2pKB2PjU1bHxKt0YsJrpV0k09NOsHd5m8L
1H+2DUCe7h4b2IEJCEZD16wGMQcxk44DnQHpUjMhUxQDmx1ar+XIUk6Q5ogVogZa
SVmW2o70hegJiVIefLyS2j5CaO1zt8ToaOkz78ju0Uw6EtlaT+wYEMnzNXyP6E13
0Xw5HeFjVFJpxsPMkHnxs82981ok8Ht9qMhoGMhTDfmyieWQEV95pVJylha52SYd
AjCYcUlYWanQNxurYFXI7KoLshqJ2iQ6Mia+WTEGLwKEUwasjzkVM9+ecDFaqR34
ML6YoWsMjNDGTVo6eJRr03FW74urDVcnTfVKNe7G0HRihypp879rB3W+U7oITKjc
TsSuGTzL1kiYo/RRxveaoBB0i4BjIIz2DT+wXy3ACyaSOQ9Gc8KZcukj7q6925af
KnTv5sww5e1BJl5Ggjg5KRCyutFXoi2Ow/arxQehOXT5DToCP3PxX45VCRoOdc/q
ljPaqOUm2XeI8rYnBed0pYJuWgDxCrTW3ORaTCyjGXmyWRiWPXM=
-----END CERTIFICATE-----
