Certificate:
    Data:
        Version: 3 (0x2)
        Serial Number: 9 (0x9)
    Signature Algorithm: sha1WithRSAEncryption
        Issuer: C=SE, ST=Stockholm, L=BNSS-GROUP-8, O=KTH/emailAddress=atiiq@kth.se, CN=Server Certificate to Connect to Stockholm
        Validity
            Not Before: Mar 16 13:29:16 2016 GMT
            Not After : Mar 16 13:29:16 2017 GMT
        Subject: C=SE, ST=Stockholm, O=KTH, CN=Cert for Hongyu/emailAddress=hongyuj@kth.se
        Subject Public Key Info:
            Public Key Algorithm: rsaEncryption
                Public-Key: (4096 bit)
                Modulus:
                    00:9e:67:e4:a1:43:06:28:0b:78:c4:ad:04:fa:e5:
                    83:98:ff:92:cd:0b:38:6c:bc:66:6e:56:75:8a:15:
                    e8:1a:bb:10:e8:23:21:10:b3:4b:cc:45:82:00:9e:
                    4b:df:e0:b0:2a:fa:47:4b:de:1e:0e:bf:d4:78:88:
                    ca:7d:5e:e5:af:f1:d5:17:ce:66:11:be:75:4b:b7:
                    16:bd:ed:b1:a3:94:e4:0f:23:1b:90:1c:1d:c4:d3:
                    fc:74:c6:3c:f0:57:bf:6d:6d:5f:a7:69:a7:9c:32:
                    30:67:2e:23:90:3d:b2:c9:01:6b:f2:73:6e:3d:f2:
                    f1:a6:17:cd:78:48:52:f0:68:55:a1:24:41:9e:e6:
                    87:c8:4f:fe:7b:e3:48:4f:c1:b2:f8:41:e3:bb:ce:
                    30:53:b3:bf:fc:a9:2a:b1:0b:fb:96:8b:6d:d7:54:
                    22:f7:b1:4a:53:df:04:f0:32:a9:af:19:5d:18:7c:
                    7a:b0:7e:46:ac:8d:66:ae:9b:34:6c:da:62:c0:34:
                    6e:ed:cd:c1:f0:99:00:87:89:9f:06:a8:dc:01:34:
                    24:81:bf:53:69:78:ff:3e:eb:78:01:2b:93:d4:90:
                    b1:0f:21:6c:5c:7d:90:7a:ad:f4:15:e6:2a:87:81:
                    08:7f:0e:14:68:2f:a8:9e:06:4f:ed:6f:71:fa:07:
                    e7:2f:a6:12:35:ec:95:68:08:d5:eb:19:89:94:d6:
                    80:ce:4d:ec:93:1b:46:fe:93:d9:1a:d8:bb:17:ff:
                    a9:27:70:f3:75:74:4d:47:71:81:02:40:a0:94:6a:
                    ec:e7:a7:55:3a:8b:0c:30:81:e0:98:04:a9:fc:5d:
                    c0:e2:9c:df:8d:fd:34:35:57:d4:6e:ed:d9:b1:50:
                    5e:68:a7:e7:f8:4c:d4:39:6c:f5:10:21:f5:84:86:
                    8a:55:55:e2:56:8f:82:09:58:fe:e4:1d:8c:fb:a7:
                    6a:e5:5b:f5:ad:81:c3:af:0f:d3:e6:b0:1a:92:28:
                    6b:15:e6:81:68:66:0e:93:23:83:9b:ac:06:db:30:
                    b2:85:2b:23:65:40:55:e4:36:c6:91:72:73:14:b8:
                    83:11:85:df:2c:70:a3:fb:ac:f7:2a:cb:cd:fe:c2:
                    86:af:72:2a:fb:47:7e:4a:9f:0b:7e:3d:83:c9:91:
                    4d:68:ec:26:bf:06:f1:27:4b:a1:40:2d:93:15:cd:
                    d4:8e:11:ea:f2:0d:23:70:bd:a0:f6:18:6a:86:a8:
                    b2:26:ee:7f:be:c2:bd:df:c8:c4:88:cf:99:fc:9e:
                    45:65:44:e3:91:6d:27:5c:a3:f0:d0:95:5b:6b:d0:
                    01:48:52:cd:81:65:65:8f:a0:02:b0:40:3f:1e:ff:
                    53:86:a5
                Exponent: 65537 (0x10001)
        X509v3 extensions:
            X509v3 Extended Key Usage: 
                TLS Web Client Authentication
    Signature Algorithm: sha1WithRSAEncryption
         80:86:b9:d6:89:fe:76:5a:18:89:50:18:f8:88:e3:ad:43:b7:
         70:fe:c8:46:f6:24:24:8f:26:99:f8:ec:ed:bb:de:73:9a:44:
         45:3d:a6:61:05:ee:f2:db:93:c7:a7:af:91:5a:1d:fb:75:50:
         9a:62:5c:a1:dd:40:56:68:e7:ef:13:1d:8e:42:63:30:75:4a:
         1f:a1:19:8c:39:2b:90:8d:08:9e:31:c3:db:6d:e6:92:db:26:
         7c:13:99:c7:29:bb:65:f6:dc:3c:99:a3:b0:f5:eb:c3:e7:ce:
         67:7b:61:ab:6d:99:2e:9f:f0:3e:2f:cf:2a:a0:b6:1c:f7:dd:
         5c:98:df:d8:dd:dd:86:5f:7b:17:60:b1:0c:40:6f:38:09:d9:
         f9:3d:6a:ca:58:c0:28:e4:de:94:12:97:03:5d:47:d4:cc:1e:
         31:1b:a4:c0:e9:1f:eb:47:d0:40:70:70:ac:2b:c3:22:6d:5c:
         8d:d8:0a:cb:5b:50:cf:11:2e:45:12:5c:82:5f:ef:2d:b5:b6:
         a8:12:5a:18:24:67:e2:82:e6:5c:83:af:8e:8c:b6:72:4f:eb:
         db:fd:0a:aa:11:29:b0:11:33:cf:1a:09:ff:43:7d:07:e4:15:
         48:e1:3d:30:71:63:f9:34:37:5c:3f:82:0a:62:e7:c7:b9:c2:
         42:0a:a0:8b:12:8c:e8:fe:a5:29:2b:86:8f:14:c5:39:23:94:
         6d:d0:05:c0:d3:d4:96:58:0d:d3:bf:65:fc:7e:76:56:8f:ed:
         f3:01:f6:6b:75:74:70:09:e6:3a:61:65:94:64:6b:6a:1c:b2:
         82:f7:3c:c1:64:ac:11:27:57:c9:1a:b4:99:d7:7c:9f:53:cb:
         d5:a7:e3:91:86:5f:61:c5:44:8c:8c:58:5a:a9:81:ea:1f:eb:
         87:ee:e0:ef:62:56:04:8f:e4:db:09:27:a5:ee:40:9c:58:55:
         72:4b:15:46:50:1e:09:91:f9:a0:06:51:2d:e1:a6:f5:09:4e:
         db:8d:1c:db:21:0c:50:b7:e5:5d:be:ee:89:4b:a9:85:95:bf:
         7e:e4:61:1b:c9:27:02:f6:15:34:31:a6:33:24:0e:df:c7:f6:
         ff:cf:4b:50:fb:6e:3d:d9:60:94:77:b7:9d:ee:7c:2b:b6:93:
         76:b9:01:4a:e7:b8:27:bc:c1:81:d7:34:41:89:18:3b:1b:79:
         9f:ab:19:f2:35:1a:30:e8:3a:8b:ae:e1:f1:29:19:88:08:d1:
         c3:4b:80:75:5f:98:7a:57:8e:e6:72:da:9c:ce:a9:b7:2c:26:
         e8:77:17:3c:e3:aa:ba:53:fe:b2:42:7d:33:c6:6c:8d:80:ab:
         84:91:2b:63:67:56:70:50
-----BEGIN CERTIFICATE-----
MIIFkzCCA3ugAwIBAgIBCTANBgkqhkiG9w0BAQUFADCBmDELMAkGA1UEBhMCU0Ux
EjAQBgNVBAgTCVN0b2NraG9sbTEVMBMGA1UEBxMMQk5TUy1HUk9VUC04MQwwCgYD
VQQKEwNLVEgxGzAZBgkqhkiG9w0BCQEWDGF0aWlxQGt0aC5zZTEzMDEGA1UEAxMq
U2VydmVyIENlcnRpZmljYXRlIHRvIENvbm5lY3QgdG8gU3RvY2tob2xtMB4XDTE2
MDMxNjEzMjkxNloXDTE3MDMxNjEzMjkxNlowaDELMAkGA1UEBhMCU0UxEjAQBgNV
BAgTCVN0b2NraG9sbTEMMAoGA1UEChMDS1RIMRgwFgYDVQQDEw9DZXJ0IGZvciBI
b25neXUxHTAbBgkqhkiG9w0BCQEWDmhvbmd5dWpAa3RoLnNlMIICIjANBgkqhkiG
9w0BAQEFAAOCAg8AMIICCgKCAgEAnmfkoUMGKAt4xK0E+uWDmP+SzQs4bLxmblZ1
ihXoGrsQ6CMhELNLzEWCAJ5L3+CwKvpHS94eDr/UeIjKfV7lr/HVF85mEb51S7cW
ve2xo5TkDyMbkBwdxNP8dMY88Fe/bW1fp2mnnDIwZy4jkD2yyQFr8nNuPfLxphfN
eEhS8GhVoSRBnuaHyE/+e+NIT8Gy+EHju84wU7O//KkqsQv7lott11Qi97FKU98E
8DKprxldGHx6sH5GrI1mrps0bNpiwDRu7c3B8JkAh4mfBqjcATQkgb9TaXj/Put4
ASuT1JCxDyFsXH2Qeq30FeYqh4EIfw4UaC+ongZP7W9x+gfnL6YSNeyVaAjV6xmJ
lNaAzk3skxtG/pPZGti7F/+pJ3DzdXRNR3GBAkCglGrs56dVOosMMIHgmASp/F3A
4pzfjf00NVfUbu3ZsVBeaKfn+EzUOWz1ECH1hIaKVVXiVo+CCVj+5B2M+6dq5Vv1
rYHDrw/T5rAakihrFeaBaGYOkyODm6wG2zCyhSsjZUBV5DbGkXJzFLiDEYXfLHCj
+6z3KsvN/sKGr3Iq+0d+Sp8Lfj2DyZFNaOwmvwbxJ0uhQC2TFc3UjhHq8g0jcL2g
9hhqhqiyJu5/vsK938jEiM+Z/J5FZUTjkW0nXKPw0JVba9ABSFLNgWVlj6ACsEA/
Hv9ThqUCAwEAAaMXMBUwEwYDVR0lBAwwCgYIKwYBBQUHAwIwDQYJKoZIhvcNAQEF
BQADggIBAICGudaJ/nZaGIlQGPiI461Dt3D+yEb2JCSPJpn47O273nOaREU9pmEF
7vLbk8enr5FaHft1UJpiXKHdQFZo5+8THY5CYzB1Sh+hGYw5K5CNCJ4xw9tt5pLb
JnwTmccpu2X23DyZo7D168Pnzmd7YattmS6f8D4vzyqgthz33VyY39jd3YZfexdg
sQxAbzgJ2fk9aspYwCjk3pQSlwNdR9TMHjEbpMDpH+tH0EBwcKwrwyJtXI3YCstb
UM8RLkUSXIJf7y21tqgSWhgkZ+KC5lyDr46MtnJP69v9CqoRKbARM88aCf9DfQfk
FUjhPTBxY/k0N1w/ggpi58e5wkIKoIsSjOj+pSkrho8UxTkjlG3QBcDT1JZYDdO/
Zfx+dlaP7fMB9mt1dHAJ5jphZZRka2ocsoL3PMFkrBEnV8katJnXfJ9Ty9Wn45GG
X2HFRIyMWFqpgeof64fu4O9iVgSP5NsJJ6XuQJxYVXJLFUZQHgmR+aAGUS3hpvUJ
TtuNHNshDFC35V2+7olLqYWVv37kYRvJJwL2FTQxpjMkDt/H9v/PS1D7bj3ZYJR3
t53ufCu2k3a5AUrnuCe8wYHXNEGJGDsbeZ+rGfI1GjDoOouu4fEpGYgI0cNLgHVf
mHpXjuZy2pzOqbcsJuh3FzzjqrpT/rJCfTPGbI2Aq4SRK2NnVnBQ
-----END CERTIFICATE-----
