Certificate:
    Data:
        Version: 3 (0x2)
        Serial Number: 1 (0x1)
    Signature Algorithm: sha1WithRSAEncryption
        Issuer: C=SE, ST=Stockholm, L=BNSS-GROUP-8, O=KTH/emailAddress=atiiq@kth.se, CN=Server Certificate to Connect to Stockholm
        Validity
            Not Before: Mar 10 15:34:43 2016 GMT
            Not After : Mar  9 15:34:43 2021 GMT
        Subject: C=SE, ST=Stockholm, O=KTH, CN=Server Certificate to Connect to Stockholm/emailAddress=atiiq@kth.se
        Subject Public Key Info:
            Public Key Algorithm: rsaEncryption
                Public-Key: (4096 bit)
                Modulus:
                    00:de:4a:8f:4a:10:43:18:20:af:e9:50:3f:e8:66:
                    25:ed:d7:a4:9d:e9:6a:5c:60:32:68:31:b4:92:8c:
                    f3:dc:a3:bf:4c:3d:03:7a:25:52:bf:38:ae:85:bb:
                    c7:c7:8f:b0:f4:da:08:38:89:69:34:40:e9:0c:bf:
                    1c:b6:63:ce:ea:26:bf:cd:56:33:cf:b4:71:6d:99:
                    ee:6a:aa:51:9c:d3:c4:e3:c8:6b:3b:f5:67:86:a4:
                    4b:49:66:5b:aa:33:c9:bd:33:0b:79:d7:44:32:50:
                    25:6f:4f:11:c0:51:c5:58:d1:4f:fd:93:22:b6:37:
                    43:27:4a:e1:43:46:7e:19:38:c4:83:1a:66:12:42:
                    ef:fd:bf:6c:1b:ac:f1:df:84:67:56:09:bd:9f:77:
                    d6:7d:2b:a3:95:60:79:f9:cc:55:41:bc:6d:8b:05:
                    d1:06:2b:60:f9:0b:42:3b:96:0c:08:7f:e9:17:f3:
                    2f:65:24:52:bb:cf:87:4a:cb:7e:7e:87:94:00:22:
                    88:9c:e4:62:a9:a5:89:b7:35:d0:3d:1e:f2:73:5e:
                    8f:e3:6a:36:a2:6a:c4:ba:ea:91:bc:0e:c0:1c:06:
                    15:7a:10:d6:2b:2a:fa:13:04:36:77:e3:6a:33:9f:
                    bc:28:4b:07:e5:c1:33:cf:9c:ff:cc:8b:be:3b:7e:
                    4d:20:0f:33:3d:46:6c:c8:b8:59:82:80:88:5d:87:
                    b0:85:f6:68:de:22:dd:09:cb:4f:31:f2:c7:95:cb:
                    48:12:9e:f6:ae:9f:6d:b3:a9:8d:c2:a0:8e:b9:b6:
                    a7:4a:37:37:68:88:42:05:66:a4:d8:a5:b9:83:b4:
                    62:a3:ac:36:e7:39:55:4c:db:12:09:cd:e5:fc:83:
                    44:b1:41:d7:03:13:e2:4e:b4:a4:dd:1c:56:8f:a9:
                    80:d9:3e:0d:5f:7b:62:19:9e:b5:77:14:21:1a:6f:
                    ac:85:fc:07:01:96:d7:45:81:d9:b5:26:cf:ef:ca:
                    7e:3b:5c:03:f9:d7:d7:3a:65:2a:9e:96:55:dd:00:
                    84:1e:b8:64:74:55:cf:87:7f:7c:a7:d9:f9:72:e9:
                    2e:05:9b:2d:cc:c3:25:54:54:28:5d:94:69:ce:45:
                    91:1c:6e:fd:1a:ab:c6:a5:7a:b1:16:e2:ae:1c:3e:
                    fa:f1:2c:ce:cd:7d:9f:e6:e1:41:98:b6:bc:0f:3e:
                    05:8f:b3:3f:01:6d:0e:3f:94:92:23:9e:8b:3e:88:
                    de:81:b3:f0:88:d4:fd:6b:51:7a:aa:41:1f:4f:ad:
                    a7:71:5c:ba:21:82:b6:70:ec:8e:a0:1e:ef:f8:99:
                    6e:7b:cb:b4:5e:f3:12:95:5b:93:04:7b:4e:8d:be:
                    8a:f6:47
                Exponent: 65537 (0x10001)
        X509v3 extensions:
            X509v3 Extended Key Usage: 
                TLS Web Server Authentication
    Signature Algorithm: sha1WithRSAEncryption
         6b:b4:f5:79:aa:da:46:2a:0f:4c:e4:9d:b1:7e:1c:d7:8f:7d:
         79:c3:24:b2:0c:3c:25:9a:99:3f:4c:53:7a:df:1c:b3:dc:39:
         3d:7f:9f:6f:94:e2:60:8b:e8:73:3e:ab:3e:a5:a8:23:5c:96:
         6e:79:cd:51:8f:e7:20:b8:c7:63:c1:e0:1f:2c:b1:21:45:27:
         99:8e:d3:93:17:c8:19:2f:e8:ab:4e:8b:53:9c:f2:56:58:88:
         7d:66:f3:25:db:b1:28:32:ac:a4:03:fa:18:9f:3c:ae:70:fe:
         9e:5a:9a:61:5b:d9:dd:26:f1:db:49:fd:2c:f5:5f:dd:8c:88:
         25:91:5e:13:ee:81:44:34:b3:58:c7:7a:14:5d:1b:10:54:83:
         c7:71:0f:74:03:b8:a3:66:7e:15:7c:4e:94:68:87:59:0c:b0:
         b1:de:18:98:15:94:04:ff:4f:c2:97:df:b2:3d:e7:d7:0c:13:
         ed:81:71:2e:76:1e:7c:bf:ba:67:c0:63:14:b9:b2:5d:a7:01:
         9a:c5:65:f3:47:3e:de:36:ee:1d:f3:2b:1e:e7:0b:bd:c7:c1:
         2c:b0:2e:f9:fe:7a:95:de:fd:89:bc:d1:16:a8:b2:78:4d:69:
         42:7a:ac:a3:88:02:3d:e4:c6:64:7c:12:b5:84:51:f0:e9:2d:
         5b:c6:3e:30:62:8b:b0:51:4a:b4:71:43:44:25:3c:d4:18:ac:
         03:71:ff:ad:f8:b1:3d:ee:d5:66:a4:2e:bf:30:d3:a6:cc:bf:
         fb:70:8a:33:db:15:29:7c:eb:0f:a0:b9:8c:e0:f8:86:00:dd:
         86:c5:30:8b:f9:0f:69:a6:34:44:05:a6:e5:50:8e:9a:b8:60:
         e2:cd:93:64:a4:21:a2:38:47:89:22:f3:85:57:f8:95:98:79:
         56:95:fc:62:89:6a:38:9b:3a:75:ac:e3:a4:b0:4d:cf:b3:26:
         2e:c0:a7:6f:95:62:58:90:1b:f7:5f:e6:bf:f5:d3:8f:52:bd:
         cb:18:cb:8b:cd:45:58:2b:fa:dc:d0:3f:5b:28:be:e6:cf:3b:
         b0:3e:27:75:90:95:36:43:05:d3:ec:f3:8d:11:d2:c5:c2:81:
         ae:69:f0:63:a7:b5:52:fa:e6:64:27:48:7d:f4:23:3b:fe:75:
         5d:16:06:d5:12:3a:e9:55:32:05:6e:72:d0:05:91:b2:a9:44:
         0e:ef:ce:10:16:56:fc:14:bd:ba:0c:22:8b:0a:60:2a:3d:f8:
         d1:ba:6c:99:ca:eb:c3:82:b5:a5:39:07:43:a1:3d:b2:6b:52:
         85:23:4c:ef:63:78:79:17:32:c3:e1:92:9d:65:c0:48:fc:82:
         16:5e:a8:29:87:de:2d:98
-----BEGIN CERTIFICATE-----
MIIFrTCCA5WgAwIBAgIBATANBgkqhkiG9w0BAQUFADCBmDELMAkGA1UEBhMCU0Ux
EjAQBgNVBAgTCVN0b2NraG9sbTEVMBMGA1UEBxMMQk5TUy1HUk9VUC04MQwwCgYD
VQQKEwNLVEgxGzAZBgkqhkiG9w0BCQEWDGF0aWlxQGt0aC5zZTEzMDEGA1UEAxMq
U2VydmVyIENlcnRpZmljYXRlIHRvIENvbm5lY3QgdG8gU3RvY2tob2xtMB4XDTE2
MDMxMDE1MzQ0M1oXDTIxMDMwOTE1MzQ0M1owgYExCzAJBgNVBAYTAlNFMRIwEAYD
VQQIEwlTdG9ja2hvbG0xDDAKBgNVBAoTA0tUSDEzMDEGA1UEAxMqU2VydmVyIENl
cnRpZmljYXRlIHRvIENvbm5lY3QgdG8gU3RvY2tob2xtMRswGQYJKoZIhvcNAQkB
FgxhdGlpcUBrdGguc2UwggIiMA0GCSqGSIb3DQEBAQUAA4ICDwAwggIKAoICAQDe
So9KEEMYIK/pUD/oZiXt16Sd6WpcYDJoMbSSjPPco79MPQN6JVK/OK6Fu8fHj7D0
2gg4iWk0QOkMvxy2Y87qJr/NVjPPtHFtme5qqlGc08TjyGs79WeGpEtJZluqM8m9
Mwt510QyUCVvTxHAUcVY0U/9kyK2N0MnSuFDRn4ZOMSDGmYSQu/9v2wbrPHfhGdW
Cb2fd9Z9K6OVYHn5zFVBvG2LBdEGK2D5C0I7lgwIf+kX8y9lJFK7z4dKy35+h5QA
Ioic5GKppYm3NdA9HvJzXo/jajaiasS66pG8DsAcBhV6ENYrKvoTBDZ342ozn7wo
SwflwTPPnP/Mi747fk0gDzM9RmzIuFmCgIhdh7CF9mjeIt0Jy08x8seVy0gSnvau
n22zqY3CoI65tqdKNzdoiEIFZqTYpbmDtGKjrDbnOVVM2xIJzeX8g0SxQdcDE+JO
tKTdHFaPqYDZPg1fe2IZnrV3FCEab6yF/AcBltdFgdm1Js/vyn47XAP519c6ZSqe
llXdAIQeuGR0Vc+Hf3yn2fly6S4Fmy3MwyVUVChdlGnORZEcbv0aq8alerEW4q4c
PvrxLM7NfZ/m4UGYtrwPPgWPsz8BbQ4/lJIjnos+iN6Bs/CI1P1rUXqqQR9Pradx
XLohgrZw7I6gHu/4mW57y7Re8xKVW5MEe06Nvor2RwIDAQABoxcwFTATBgNVHSUE
DDAKBggrBgEFBQcDATANBgkqhkiG9w0BAQUFAAOCAgEAa7T1earaRioPTOSdsX4c
1499ecMksgw8JZqZP0xTet8cs9w5PX+fb5TiYIvocz6rPqWoI1yWbnnNUY/nILjH
Y8HgHyyxIUUnmY7TkxfIGS/oq06LU5zyVliIfWbzJduxKDKspAP6GJ88rnD+nlqa
YVvZ3Sbx20n9LPVf3YyIJZFeE+6BRDSzWMd6FF0bEFSDx3EPdAO4o2Z+FXxOlGiH
WQywsd4YmBWUBP9Pwpffsj3n1wwT7YFxLnYefL+6Z8BjFLmyXacBmsVl80c+3jbu
HfMrHucLvcfBLLAu+f56ld79ibzRFqiyeE1pQnqso4gCPeTGZHwStYRR8OktW8Y+
MGKLsFFKtHFDRCU81BisA3H/rfixPe7VZqQuvzDTpsy/+3CKM9sVKXzrD6C5jOD4
hgDdhsUwi/kPaaY0RAWm5VCOmrhg4s2TZKQhojhHiSLzhVf4lZh5VpX8YolqOJs6
dazjpLBNz7MmLsCnb5ViWJAb91/mv/XTj1K9yxjLi81FWCv63NA/Wyi+5s87sD4n
dZCVNkMF0+zzjRHSxcKBrmnwY6e1UvrmZCdIffQjO/51XRYG1RI66VUyBW5y0AWR
sqlEDu/OEBZW/BS9ugwiiwpgKj340bpsmcrrw4K1pTkHQ6E9smtShSNM72N4eRcy
w+GSnWXASPyCFl6oKYfeLZg=
-----END CERTIFICATE-----
